ARM GAS  C:\Users\EmilR\AppData\Local\Temp\ccX7n0tm.s 			page 1


   1              		.syntax unified
   2              		.cpu cortex-m3
   3              		.fpu softvfp
   4              		.eabi_attribute 20, 1
   5              		.eabi_attribute 21, 1
   6              		.eabi_attribute 23, 3
   7              		.eabi_attribute 24, 1
   8              		.eabi_attribute 25, 1
   9              		.eabi_attribute 26, 1
  10              		.eabi_attribute 30, 1
  11              		.eabi_attribute 34, 1
  12              		.eabi_attribute 18, 4
  13              		.thumb
  14              		.file	"functions.c"
  15              		.text
  16              	.Ltext0:
  17              		.cfi_sections	.debug_frame
  18              		.section	.text.printBinaryData,"ax",%progbits
  19              		.align	2
  20              		.global	printBinaryData
  21              		.thumb
  22              		.thumb_func
  23              		.type	printBinaryData, %function
  24              	printBinaryData:
  25              	.LFB64:
  26              		.file 1 "functions.c"
   1:functions.c   **** #include <project.h>
   2:functions.c   **** #include <functions.h>
   3:functions.c   **** #include <math.h>
   4:functions.c   **** #include <stdio.h>
   5:functions.c   **** #include <main.h>
   6:functions.c   **** #define THRESHOLD 50
   7:functions.c   **** 
   8:functions.c   **** int16 mouseDataX = 0;
   9:functions.c   **** int16 mouseDataY = 0;
  10:functions.c   **** int16 *statusData;
  11:functions.c   **** 
  12:functions.c   **** 
  13:functions.c   **** 
  14:functions.c   **** int16 mouseX_global = 0;
  15:functions.c   **** 
  16:functions.c   **** void Init(struct mouse *mouseData) {
  17:functions.c   ****     //UART_1_Start();
  18:functions.c   **** 
  19:functions.c   ****     
  20:functions.c   ****     /****************************Struct init********************************/
  21:functions.c   ****     int8 i = 0;
  22:functions.c   ****     for (i = 0; i < 8; i++) {
  23:functions.c   ****         mouseData->tmpMouseX[i] = 0;
  24:functions.c   ****         mouseData->tmpMouseY[i] = 0; 
  25:functions.c   ****         mouseData->status[i] = 0; 
  26:functions.c   ****     }
  27:functions.c   ****     mouseData->finalX = 0;
  28:functions.c   ****     mouseData->timesInterrupted = 0;
  29:functions.c   ****     mouseData->angle = 0;
  30:functions.c   ****     
  31:functions.c   ****     /*********************Initializing mouse********************************/
ARM GAS  C:\Users\EmilR\AppData\Local\Temp\ccX7n0tm.s 			page 2


  32:functions.c   ****     
  33:functions.c   ****     
  34:functions.c   ****     uint8 initData[8] = {1, 1, 1, 1, 0, 1, 0, 0};
  35:functions.c   ****     initMouse(initData);
  36:functions.c   **** 
  37:functions.c   ****     
  38:functions.c   ****     
  39:functions.c   ****     /****************************Enabling Interrupts************************/
  40:functions.c   ****     
  41:functions.c   **** }
  42:functions.c   **** 
  43:functions.c   **** void printBinaryData(uint8 *statusData, uint8 *xData, uint8 *yData) {
  27              		.loc 1 43 0
  28              		.cfi_startproc
  29              		@ args = 0, pretend = 0, frame = 24
  30              		@ frame_needed = 0, uses_anonymous_args = 0
  31              	.LVL0:
  32 0000 70B5     		push	{r4, r5, r6, lr}
  33              		.cfi_def_cfa_offset 16
  34              		.cfi_offset 4, -16
  35              		.cfi_offset 5, -12
  36              		.cfi_offset 6, -8
  37              		.cfi_offset 14, -4
  38 0002 86B0     		sub	sp, sp, #24
  39              		.cfi_def_cfa_offset 40
  40 0004 0646     		mov	r6, r0
  41 0006 0D46     		mov	r5, r1
  42              	.LVL1:
  44:functions.c   ****    char value[20];
  45:functions.c   ****    int8 i = 0;
  46:functions.c   ****    for(i = 0; i < 8; i++) {
  43              		.loc 1 46 0
  44 0008 0024     		movs	r4, #0
  45 000a 10E0     		b	.L2
  46              	.LVL2:
  47              	.L5:
  47:functions.c   ****             
  48:functions.c   ****             if (i == 7) {
  48              		.loc 1 48 0
  49 000c 63B2     		sxtb	r3, r4
  50 000e 072B     		cmp	r3, #7
  51 0010 05D1     		bne	.L3
  49:functions.c   ****                 sprintf(value,"%d | ",statusData[i]);
  52              		.loc 1 49 0
  53 0012 01A8     		add	r0, sp, #4
  54 0014 1749     		ldr	r1, .L13
  55 0016 F25C     		ldrb	r2, [r6, r3]	@ zero_extendqisi2
  56 0018 FFF7FEFF 		bl	sprintf
  57              	.LVL3:
  58 001c 05E0     		b	.L4
  59              	.L3:
  50:functions.c   ****                 //UART_1_UartPutString(value);
  51:functions.c   ****             }
  52:functions.c   ****             else {
  53:functions.c   ****                 
  54:functions.c   ****                 sprintf(value,"%d",statusData[i]);
  60              		.loc 1 54 0
ARM GAS  C:\Users\EmilR\AppData\Local\Temp\ccX7n0tm.s 			page 3


  61 001e 63B2     		sxtb	r3, r4
  62 0020 01A8     		add	r0, sp, #4
  63 0022 1549     		ldr	r1, .L13+4
  64 0024 F25C     		ldrb	r2, [r6, r3]	@ zero_extendqisi2
  65 0026 FFF7FEFF 		bl	sprintf
  66              	.LVL4:
  67              	.L4:
  46:functions.c   ****             
  68              		.loc 1 46 0 discriminator 2
  69 002a 0134     		adds	r4, r4, #1
  70              	.LVL5:
  71 002c E4B2     		uxtb	r4, r4
  72              	.LVL6:
  73              	.L2:
  46:functions.c   ****             
  74              		.loc 1 46 0 is_stmt 0 discriminator 1
  75 002e 63B2     		sxtb	r3, r4
  76 0030 072B     		cmp	r3, #7
  77 0032 EBDD     		ble	.L5
  78 0034 0024     		movs	r4, #0
  79              	.LVL7:
  80 0036 10E0     		b	.L6
  81              	.LVL8:
  82              	.L9:
  55:functions.c   ****                 //UART_1_UartPutString(value);
  56:functions.c   ****             }
  57:functions.c   ****             
  58:functions.c   ****         }
  59:functions.c   ****         
  60:functions.c   ****         for(i = 0; i < 8; i++) {
  61:functions.c   ****             
  62:functions.c   ****             if (i == 7) {
  83              		.loc 1 62 0 is_stmt 1
  84 0038 63B2     		sxtb	r3, r4
  85 003a 072B     		cmp	r3, #7
  86 003c 05D1     		bne	.L7
  63:functions.c   ****                 sprintf(value,"%d | ",xData[i]);
  87              		.loc 1 63 0
  88 003e 01A8     		add	r0, sp, #4
  89 0040 0C49     		ldr	r1, .L13
  90 0042 EA5C     		ldrb	r2, [r5, r3]	@ zero_extendqisi2
  91 0044 FFF7FEFF 		bl	sprintf
  92              	.LVL9:
  93 0048 05E0     		b	.L8
  94              	.L7:
  64:functions.c   ****                 //UART_1_UartPutString(value);
  65:functions.c   ****             }
  66:functions.c   ****             else {
  67:functions.c   ****                 
  68:functions.c   ****                 sprintf(value,"%d",xData[i]);
  95              		.loc 1 68 0
  96 004a 63B2     		sxtb	r3, r4
  97 004c 01A8     		add	r0, sp, #4
  98 004e 0A49     		ldr	r1, .L13+4
  99 0050 EA5C     		ldrb	r2, [r5, r3]	@ zero_extendqisi2
 100 0052 FFF7FEFF 		bl	sprintf
 101              	.LVL10:
ARM GAS  C:\Users\EmilR\AppData\Local\Temp\ccX7n0tm.s 			page 4


 102              	.L8:
  60:functions.c   ****             
 103              		.loc 1 60 0 discriminator 2
 104 0056 0134     		adds	r4, r4, #1
 105              	.LVL11:
 106 0058 E4B2     		uxtb	r4, r4
 107              	.LVL12:
 108              	.L6:
  60:functions.c   ****             
 109              		.loc 1 60 0 is_stmt 0 discriminator 1
 110 005a 63B2     		sxtb	r3, r4
 111 005c 072B     		cmp	r3, #7
 112 005e EBDD     		ble	.L9
 113 0060 0023     		movs	r3, #0
 114 0062 01E0     		b	.L10
 115              	.LVL13:
 116              	.L11:
  69:functions.c   ****                 //UART_1_UartPutString(value);
  70:functions.c   ****             }
  71:functions.c   ****             
  72:functions.c   ****         }
  73:functions.c   ****         
  74:functions.c   ****         for(i = 0; i < 8; i++) {
 117              		.loc 1 74 0 is_stmt 1 discriminator 2
 118 0064 0133     		adds	r3, r3, #1
 119              	.LVL14:
 120 0066 DBB2     		uxtb	r3, r3
 121              	.LVL15:
 122              	.L10:
 123              		.loc 1 74 0 is_stmt 0 discriminator 1
 124 0068 5AB2     		sxtb	r2, r3
 125 006a 072A     		cmp	r2, #7
 126 006c FADD     		ble	.L11
  75:functions.c   ****             
  76:functions.c   ****             if (i == 7) {
  77:functions.c   ****                 //sprintf(value,"%d \n\r",yData[i]);
  78:functions.c   ****                // UART_1_UartPutString(value);
  79:functions.c   ****             }
  80:functions.c   ****             else {
  81:functions.c   ****                 
  82:functions.c   ****                //sprintf(value,"%d",yData[i]);
  83:functions.c   ****                // UART_1_UartPutString(value);
  84:functions.c   ****             }
  85:functions.c   ****             
  86:functions.c   ****         }   
  87:functions.c   **** }
 127              		.loc 1 87 0 is_stmt 1
 128 006e 06B0     		add	sp, sp, #24
 129              		.cfi_def_cfa_offset 16
 130              		@ sp needed
 131 0070 70BD     		pop	{r4, r5, r6, pc}
 132              	.LVL16:
 133              	.L14:
 134 0072 00BF     		.align	2
 135              	.L13:
 136 0074 00000000 		.word	.LC1
 137 0078 08000000 		.word	.LC2
ARM GAS  C:\Users\EmilR\AppData\Local\Temp\ccX7n0tm.s 			page 5


 138              		.cfi_endproc
 139              	.LFE64:
 140              		.size	printBinaryData, .-printBinaryData
 141              		.global	__aeabi_i2d
 142              		.global	__aeabi_d2iz
 143              		.global	__aeabi_i2f
 144              		.global	__aeabi_fdiv
 145              		.global	__aeabi_f2d
 146              		.global	__aeabi_dmul
 147              		.global	__aeabi_ddiv
 148              		.global	__aeabi_d2uiz
 149              		.global	__aeabi_dadd
 150              		.section	.text.ISR_getMouseData,"ax",%progbits
 151              		.align	2
 152              		.global	ISR_getMouseData
 153              		.thumb
 154              		.thumb_func
 155              		.type	ISR_getMouseData, %function
 156              	ISR_getMouseData:
 157              	.LFB65:
  88:functions.c   **** 
  89:functions.c   **** void ISR_getMouseData(struct mouse *mouseData) {
 158              		.loc 1 89 0
 159              		.cfi_startproc
 160              		@ args = 0, pretend = 0, frame = 0
 161              		@ frame_needed = 0, uses_anonymous_args = 0
 162              	.LVL17:
 163 0000 70B5     		push	{r4, r5, r6, lr}
 164              		.cfi_def_cfa_offset 16
 165              		.cfi_offset 4, -16
 166              		.cfi_offset 5, -12
 167              		.cfi_offset 6, -8
 168              		.cfi_offset 14, -4
 169 0002 0546     		mov	r5, r0
 170              	.LVL18:
  90:functions.c   **** 
  91:functions.c   ****     int deg = 180/3.14*10;
  92:functions.c   ****     uint8 i = 0;
 171              		.loc 1 92 0
 172 0004 0024     		movs	r4, #0
  93:functions.c   ****     char value[20];
  94:functions.c   ****     int16 multiplier = 1;
  95:functions.c   ****     uint8 tempData = 0;
  96:functions.c   ****     int8 j = 7;
  97:functions.c   ****     
  98:functions.c   ****     int distance = 0;
  99:functions.c   ****     int angle;
 100:functions.c   **** 
 101:functions.c   ****     
 102:functions.c   ****     int16 tmpX = 0;
 103:functions.c   ****     int16 tmpY = 0;
 104:functions.c   ****     while (i < PACKETSIZE) {
 173              		.loc 1 104 0
 174 0006 34E0     		b	.L16
 175              	.LVL19:
 176              	.L26:
 105:functions.c   ****         if (i == 0 && PS2_Data_Read() == 1) {
ARM GAS  C:\Users\EmilR\AppData\Local\Temp\ccX7n0tm.s 			page 6


 177              		.loc 1 105 0
 178 0008 24B9     		cbnz	r4, .L17
 179              		.loc 1 105 0 is_stmt 0 discriminator 1
 180 000a FFF7FEFF 		bl	PS2_Data_Read
 181              	.LVL20:
 182 000e 0128     		cmp	r0, #1
 183 0010 00F03181 		beq	.L15
 184              	.L17:
 106:functions.c   ****             return;
 107:functions.c   ****         }
 108:functions.c   ****         
 109:functions.c   ****         else {
 110:functions.c   ****             if (i != 0) {
 185              		.loc 1 110 0 is_stmt 1
 186 0014 1CB1     		cbz	r4, .L19
 187              	.L20:
 111:functions.c   ****                 while(PS2_Clock_Read());
 188              		.loc 1 111 0 discriminator 1
 189 0016 FFF7FEFF 		bl	PS2_Clock_Read
 190              	.LVL21:
 191 001a 0028     		cmp	r0, #0
 192 001c FBD1     		bne	.L20
 193              	.L19:
 112:functions.c   ****             }
 113:functions.c   ****             
 114:functions.c   ****             if(i > 0 && i < 9) {
 194              		.loc 1 114 0
 195 001e 631E     		subs	r3, r4, #1
 196 0020 DBB2     		uxtb	r3, r3
 197 0022 072B     		cmp	r3, #7
 198 0024 06D8     		bhi	.L21
 115:functions.c   ****                 mouseData->status[i-1] = PS2_Data_Read();
 199              		.loc 1 115 0
 200 0026 661E     		subs	r6, r4, #1
 201 0028 FFF7FEFF 		bl	PS2_Data_Read
 202              	.LVL22:
 203 002c 3346     		mov	r3, r6
 204 002e 2B44     		add	r3, r3, r5
 205 0030 1874     		strb	r0, [r3, #16]
 206 0032 16E0     		b	.L22
 207              	.L21:
 116:functions.c   ****             }
 117:functions.c   ****             else if(i > 11 && i < 20) {
 208              		.loc 1 117 0
 209 0034 A4F10C03 		sub	r3, r4, #12
 210 0038 DBB2     		uxtb	r3, r3
 211 003a 072B     		cmp	r3, #7
 212 003c 05D8     		bhi	.L23
 118:functions.c   ****                 mouseData->tmpMouseX[i-12] = PS2_Data_Read();
 213              		.loc 1 118 0
 214 003e A4F10C06 		sub	r6, r4, #12
 215 0042 FFF7FEFF 		bl	PS2_Data_Read
 216              	.LVL23:
 217 0046 A855     		strb	r0, [r5, r6]
 218 0048 0BE0     		b	.L22
 219              	.L23:
 119:functions.c   ****             }
ARM GAS  C:\Users\EmilR\AppData\Local\Temp\ccX7n0tm.s 			page 7


 120:functions.c   ****             
 121:functions.c   ****             else if(i > 22 && i < 31) {
 220              		.loc 1 121 0
 221 004a A4F11703 		sub	r3, r4, #23
 222 004e DBB2     		uxtb	r3, r3
 223 0050 072B     		cmp	r3, #7
 224 0052 06D8     		bhi	.L22
 122:functions.c   ****                 mouseData->tmpMouseY[i-23] = PS2_Data_Read();
 225              		.loc 1 122 0
 226 0054 A4F11706 		sub	r6, r4, #23
 227 0058 FFF7FEFF 		bl	PS2_Data_Read
 228              	.LVL24:
 229 005c 3346     		mov	r3, r6
 230 005e 2B44     		add	r3, r3, r5
 231 0060 1872     		strb	r0, [r3, #8]
 232              	.L22:
 123:functions.c   ****             }
 124:functions.c   ****             if(i == 32) {
 233              		.loc 1 124 0
 234 0062 202C     		cmp	r4, #32
 235 0064 03D0     		beq	.L24
 236              	.L25:
 125:functions.c   ****                 
 126:functions.c   ****             }
 127:functions.c   ****             else {
 128:functions.c   ****                 while(!PS2_Clock_Read());
 237              		.loc 1 128 0 discriminator 1
 238 0066 FFF7FEFF 		bl	PS2_Clock_Read
 239              	.LVL25:
 240 006a 0028     		cmp	r0, #0
 241 006c FBD0     		beq	.L25
 242              	.L24:
 129:functions.c   ****             }
 130:functions.c   ****         
 131:functions.c   ****         }
 132:functions.c   ****         i++;
 243              		.loc 1 132 0
 244 006e 0134     		adds	r4, r4, #1
 245              	.LVL26:
 246 0070 E4B2     		uxtb	r4, r4
 247              	.LVL27:
 248              	.L16:
 104:functions.c   ****         if (i == 0 && PS2_Data_Read() == 1) {
 249              		.loc 1 104 0
 250 0072 202C     		cmp	r4, #32
 251 0074 C8D9     		bls	.L26
 133:functions.c   ****     }
 134:functions.c   ****     
 135:functions.c   ****     //Laver binary om til decimal
 136:functions.c   ****     
 137:functions.c   ****     if (mouseData->status[4])
 252              		.loc 1 137 0
 253 0076 2B7D     		ldrb	r3, [r5, #20]	@ zero_extendqisi2
 254 0078 0BB9     		cbnz	r3, .L39
 102:functions.c   ****     int16 tmpY = 0;
 255              		.loc 1 102 0
 256 007a 0026     		movs	r6, #0
ARM GAS  C:\Users\EmilR\AppData\Local\Temp\ccX7n0tm.s 			page 8


 257 007c 01E0     		b	.L27
 258              	.L39:
 138:functions.c   ****         tmpX = -1;
 259              		.loc 1 138 0
 260 007e 4FF6FF76 		movw	r6, #65535
 261              	.L27:
 262              	.LVL28:
 139:functions.c   ****     if (mouseData->status[5]) {
 263              		.loc 1 139 0
 264 0082 6B7D     		ldrb	r3, [r5, #21]	@ zero_extendqisi2
 265 0084 0BB9     		cbnz	r3, .L40
 103:functions.c   ****     while (i < PACKETSIZE) {
 266              		.loc 1 103 0
 267 0086 0024     		movs	r4, #0
 268              	.LVL29:
 269 0088 01E0     		b	.L28
 270              	.LVL30:
 271              	.L40:
 140:functions.c   ****         tmpY = -1;
 272              		.loc 1 140 0
 273 008a 4FF6FF74 		movw	r4, #65535
 274              	.LVL31:
 275              	.L28:
 103:functions.c   ****     while (i < PACKETSIZE) {
 276              		.loc 1 103 0 discriminator 1
 277 008e 0023     		movs	r3, #0
 278 0090 1DE0     		b	.L29
 279              	.LVL32:
 280              	.L34:
 141:functions.c   ****     }
 142:functions.c   ****     for (j = 0; j<7; j++ )
 143:functions.c   ****     {
 144:functions.c   ****         if (mouseData->tmpMouseX[j]) {
 281              		.loc 1 144 0
 282 0092 5AB2     		sxtb	r2, r3
 283 0094 A95C     		ldrb	r1, [r5, r2]	@ zero_extendqisi2
 284 0096 31B1     		cbz	r1, .L30
 145:functions.c   ****             tmpX |= 1<<j;
 285              		.loc 1 145 0
 286 0098 0121     		movs	r1, #1
 287 009a 01FA02F0 		lsl	r0, r1, r2
 288 009e 40EA0601 		orr	r1, r0, r6
 289 00a2 8EB2     		uxth	r6, r1
 290              	.LVL33:
 291 00a4 03E0     		b	.L31
 292              	.L30:
 146:functions.c   ****         } 
 147:functions.c   ****         else {
 148:functions.c   ****             tmpX &= ~(1<<j);
 293              		.loc 1 148 0
 294 00a6 0121     		movs	r1, #1
 295 00a8 9140     		lsls	r1, r1, r2
 296 00aa 26EA0106 		bic	r6, r6, r1
 297              	.LVL34:
 298              	.L31:
 149:functions.c   ****         }
 150:functions.c   ****         
ARM GAS  C:\Users\EmilR\AppData\Local\Temp\ccX7n0tm.s 			page 9


 151:functions.c   ****         if (mouseData->tmpMouseY[j]) {
 299              		.loc 1 151 0
 300 00ae A918     		adds	r1, r5, r2
 301 00b0 097A     		ldrb	r1, [r1, #8]	@ zero_extendqisi2
 302 00b2 29B1     		cbz	r1, .L32
 152:functions.c   ****             tmpY |= 1<<j;
 303              		.loc 1 152 0
 304 00b4 0121     		movs	r1, #1
 305 00b6 9140     		lsls	r1, r1, r2
 306 00b8 41EA0402 		orr	r2, r1, r4
 307 00bc 94B2     		uxth	r4, r2
 308              	.LVL35:
 309 00be 04E0     		b	.L33
 310              	.L32:
 153:functions.c   ****         } 
 154:functions.c   ****         else {
 155:functions.c   ****             tmpY &= ~(1<<j);
 311              		.loc 1 155 0
 312 00c0 0121     		movs	r1, #1
 313 00c2 01FA02F2 		lsl	r2, r1, r2
 314 00c6 24EA0204 		bic	r4, r4, r2
 315              	.LVL36:
 316              	.L33:
 142:functions.c   ****     {
 317              		.loc 1 142 0 discriminator 2
 318 00ca 0133     		adds	r3, r3, #1
 319              	.LVL37:
 320 00cc DBB2     		uxtb	r3, r3
 321              	.LVL38:
 322              	.L29:
 142:functions.c   ****     {
 323              		.loc 1 142 0 is_stmt 0 discriminator 1
 324 00ce 58B2     		sxtb	r0, r3
 325 00d0 0628     		cmp	r0, #6
 326 00d2 DEDD     		ble	.L34
 156:functions.c   ****         }
 157:functions.c   ****     }
 158:functions.c   ****     mouseData->finalX += tmpX;
 327              		.loc 1 158 0 is_stmt 1
 328 00d4 AB8B     		ldrh	r3, [r5, #28]
 329              	.LVL39:
 330 00d6 3344     		add	r3, r3, r6
 331 00d8 9BB2     		uxth	r3, r3
 332 00da AB83     		strh	r3, [r5, #28]	@ movhi
 159:functions.c   ****     mouseData->finalY += tmpY;
 333              		.loc 1 159 0
 334 00dc EA8B     		ldrh	r2, [r5, #30]
 335 00de 2244     		add	r2, r2, r4
 336 00e0 92B2     		uxth	r2, r2
 337 00e2 EA83     		strh	r2, [r5, #30]	@ movhi
 160:functions.c   ****     mouseData->timesInterrupted++;
 338              		.loc 1 160 0
 339 00e4 298B     		ldrh	r1, [r5, #24]
 340 00e6 0131     		adds	r1, r1, #1
 341 00e8 2983     		strh	r1, [r5, #24]	@ movhi
 161:functions.c   ****     distance = sqrt((mouseData->finalX*mouseData->finalX)+(mouseData->finalY*mouseData->finalY));
 342              		.loc 1 161 0
ARM GAS  C:\Users\EmilR\AppData\Local\Temp\ccX7n0tm.s 			page 10


 343 00ea 1CB2     		sxth	r4, r3
 344              	.LVL40:
 345 00ec 13B2     		sxth	r3, r2
 346 00ee 03FB03F3 		mul	r3, r3, r3
 347 00f2 04FB0434 		mla	r4, r4, r4, r3
 348 00f6 2046     		mov	r0, r4
 349              	.LVL41:
 350 00f8 FFF7FEFF 		bl	__aeabi_i2d
 351              	.LVL42:
 352 00fc FFF7FEFF 		bl	sqrt
 353              	.LVL43:
 354 0100 FFF7FEFF 		bl	__aeabi_d2iz
 355              	.LVL44:
 356 0104 0446     		mov	r4, r0
 357              	.LVL45:
 162:functions.c   ****         
 163:functions.c   ****             if (mouseData->finalX >= 0 && mouseData->finalY > 0) {
 358              		.loc 1 163 0
 359 0106 A88B     		ldrh	r0, [r5, #28]
 360              	.LVL46:
 361 0108 10F4004F 		tst	r0, #32768
 362 010c 23D1     		bne	.L35
 363              		.loc 1 163 0 is_stmt 0 discriminator 1
 364 010e B5F91E30 		ldrsh	r3, [r5, #30]
 365 0112 002B     		cmp	r3, #0
 366 0114 1FDD     		ble	.L35
 164:functions.c   ****                 mouseData->angle = (asin(((float)mouseData->finalX)/(float)distance)*deg)/10/1.8;  
 367              		.loc 1 164 0 is_stmt 1
 368 0116 00B2     		sxth	r0, r0
 369 0118 FFF7FEFF 		bl	__aeabi_i2f
 370              	.LVL47:
 371 011c 0646     		mov	r6, r0
 372              	.LVL48:
 373 011e 2046     		mov	r0, r4
 374 0120 FFF7FEFF 		bl	__aeabi_i2f
 375              	.LVL49:
 376 0124 0146     		mov	r1, r0
 377 0126 3046     		mov	r0, r6
 378 0128 FFF7FEFF 		bl	__aeabi_fdiv
 379              	.LVL50:
 380 012c FFF7FEFF 		bl	__aeabi_f2d
 381              	.LVL51:
 382 0130 FFF7FEFF 		bl	asin
 383              	.LVL52:
 384 0134 0022     		movs	r2, #0
 385 0136 544B     		ldr	r3, .L42+16
 386 0138 FFF7FEFF 		bl	__aeabi_dmul
 387              	.LVL53:
 388 013c 0022     		movs	r2, #0
 389 013e 534B     		ldr	r3, .L42+20
 390 0140 FFF7FEFF 		bl	__aeabi_ddiv
 391              	.LVL54:
 392 0144 4CA3     		adr	r3, .L42
 393 0146 D3E90023 		ldrd	r2, [r3]
 394 014a FFF7FEFF 		bl	__aeabi_ddiv
 395              	.LVL55:
 396 014e FFF7FEFF 		bl	__aeabi_d2uiz
ARM GAS  C:\Users\EmilR\AppData\Local\Temp\ccX7n0tm.s 			page 11


 397              	.LVL56:
 398 0152 A876     		strb	r0, [r5, #26]
 399 0154 82E0     		b	.L36
 400              	.LVL57:
 401              	.L35:
 165:functions.c   ****             }
 166:functions.c   ****             
 167:functions.c   ****             else if (mouseData->finalX > 0 && mouseData->finalY < 0) {
 402              		.loc 1 167 0
 403 0156 03B2     		sxth	r3, r0
 404 0158 002B     		cmp	r3, #0
 405 015a 28DD     		ble	.L37
 406              		.loc 1 167 0 is_stmt 0 discriminator 1
 407 015c EB8B     		ldrh	r3, [r5, #30]
 408 015e 13F4004F 		tst	r3, #32768
 409 0162 24D0     		beq	.L37
 168:functions.c   ****                 mouseData->angle = ((asin(((float)-mouseData->finalY)/(float)distance)*deg)+900)/10
 410              		.loc 1 168 0 is_stmt 1
 411 0164 18B2     		sxth	r0, r3
 412 0166 4042     		negs	r0, r0
 413 0168 FFF7FEFF 		bl	__aeabi_i2f
 414              	.LVL58:
 415 016c 0646     		mov	r6, r0
 416              	.LVL59:
 417 016e 2046     		mov	r0, r4
 418 0170 FFF7FEFF 		bl	__aeabi_i2f
 419              	.LVL60:
 420 0174 0146     		mov	r1, r0
 421 0176 3046     		mov	r0, r6
 422 0178 FFF7FEFF 		bl	__aeabi_fdiv
 423              	.LVL61:
 424 017c FFF7FEFF 		bl	__aeabi_f2d
 425              	.LVL62:
 426 0180 FFF7FEFF 		bl	asin
 427              	.LVL63:
 428 0184 0022     		movs	r2, #0
 429 0186 404B     		ldr	r3, .L42+16
 430 0188 FFF7FEFF 		bl	__aeabi_dmul
 431              	.LVL64:
 432 018c 0022     		movs	r2, #0
 433 018e 404B     		ldr	r3, .L42+24
 434 0190 FFF7FEFF 		bl	__aeabi_dadd
 435              	.LVL65:
 436 0194 0022     		movs	r2, #0
 437 0196 3D4B     		ldr	r3, .L42+20
 438 0198 FFF7FEFF 		bl	__aeabi_ddiv
 439              	.LVL66:
 440 019c 36A3     		adr	r3, .L42
 441 019e D3E90023 		ldrd	r2, [r3]
 442 01a2 FFF7FEFF 		bl	__aeabi_ddiv
 443              	.LVL67:
 444 01a6 FFF7FEFF 		bl	__aeabi_d2uiz
 445              	.LVL68:
 446 01aa A876     		strb	r0, [r5, #26]
 447 01ac 56E0     		b	.L36
 448              	.LVL69:
 449              	.L37:
ARM GAS  C:\Users\EmilR\AppData\Local\Temp\ccX7n0tm.s 			page 12


 169:functions.c   ****             }
 170:functions.c   ****             
 171:functions.c   ****             else if (mouseData->finalX <= 0 && mouseData->finalY < 0) {
 450              		.loc 1 171 0
 451 01ae 03B2     		sxth	r3, r0
 452 01b0 002B     		cmp	r3, #0
 453 01b2 28DC     		bgt	.L38
 454              		.loc 1 171 0 is_stmt 0 discriminator 1
 455 01b4 B5F91E30 		ldrsh	r3, [r5, #30]
 456 01b8 002B     		cmp	r3, #0
 457 01ba 24DA     		bge	.L38
 172:functions.c   ****                 mouseData->angle = ((asin(((float)-mouseData->finalX)/(float)distance)*deg)+1800)/1
 458              		.loc 1 172 0 is_stmt 1
 459 01bc 00B2     		sxth	r0, r0
 460 01be 4042     		negs	r0, r0
 461 01c0 FFF7FEFF 		bl	__aeabi_i2f
 462              	.LVL70:
 463 01c4 0646     		mov	r6, r0
 464              	.LVL71:
 465 01c6 2046     		mov	r0, r4
 466 01c8 FFF7FEFF 		bl	__aeabi_i2f
 467              	.LVL72:
 468 01cc 0146     		mov	r1, r0
 469 01ce 3046     		mov	r0, r6
 470 01d0 FFF7FEFF 		bl	__aeabi_fdiv
 471              	.LVL73:
 472 01d4 FFF7FEFF 		bl	__aeabi_f2d
 473              	.LVL74:
 474 01d8 FFF7FEFF 		bl	asin
 475              	.LVL75:
 476 01dc 0022     		movs	r2, #0
 477 01de 2A4B     		ldr	r3, .L42+16
 478 01e0 FFF7FEFF 		bl	__aeabi_dmul
 479              	.LVL76:
 480 01e4 0022     		movs	r2, #0
 481 01e6 2B4B     		ldr	r3, .L42+28
 482 01e8 FFF7FEFF 		bl	__aeabi_dadd
 483              	.LVL77:
 484 01ec 0022     		movs	r2, #0
 485 01ee 274B     		ldr	r3, .L42+20
 486 01f0 FFF7FEFF 		bl	__aeabi_ddiv
 487              	.LVL78:
 488 01f4 20A3     		adr	r3, .L42
 489 01f6 D3E90023 		ldrd	r2, [r3]
 490 01fa FFF7FEFF 		bl	__aeabi_ddiv
 491              	.LVL79:
 492 01fe FFF7FEFF 		bl	__aeabi_d2uiz
 493              	.LVL80:
 494 0202 A876     		strb	r0, [r5, #26]
 495 0204 2AE0     		b	.L36
 496              	.LVL81:
 497              	.L38:
 173:functions.c   ****             }
 174:functions.c   ****             
 175:functions.c   ****             else if (mouseData->finalX < 0 && mouseData->finalY >=          0) {
 498              		.loc 1 175 0
 499 0206 10F4004F 		tst	r0, #32768
ARM GAS  C:\Users\EmilR\AppData\Local\Temp\ccX7n0tm.s 			page 13


 500 020a 27D0     		beq	.L36
 501              		.loc 1 175 0 is_stmt 0 discriminator 1
 502 020c E88B     		ldrh	r0, [r5, #30]
 503 020e 10F4004F 		tst	r0, #32768
 504 0212 23D1     		bne	.L36
 176:functions.c   ****                 mouseData->angle = ((asin(((float)mouseData->finalY)/(float)distance)*deg)+2700)/10
 505              		.loc 1 176 0 is_stmt 1
 506 0214 00B2     		sxth	r0, r0
 507 0216 FFF7FEFF 		bl	__aeabi_i2f
 508              	.LVL82:
 509 021a 0646     		mov	r6, r0
 510              	.LVL83:
 511 021c 2046     		mov	r0, r4
 512 021e FFF7FEFF 		bl	__aeabi_i2f
 513              	.LVL84:
 514 0222 0146     		mov	r1, r0
 515 0224 3046     		mov	r0, r6
 516 0226 FFF7FEFF 		bl	__aeabi_fdiv
 517              	.LVL85:
 518 022a FFF7FEFF 		bl	__aeabi_f2d
 519              	.LVL86:
 520 022e FFF7FEFF 		bl	asin
 521              	.LVL87:
 522 0232 0022     		movs	r2, #0
 523 0234 144B     		ldr	r3, .L42+16
 524 0236 FFF7FEFF 		bl	__aeabi_dmul
 525              	.LVL88:
 526 023a 11A3     		adr	r3, .L42+8
 527 023c D3E90023 		ldrd	r2, [r3]
 528 0240 FFF7FEFF 		bl	__aeabi_dadd
 529              	.LVL89:
 530 0244 0022     		movs	r2, #0
 531 0246 114B     		ldr	r3, .L42+20
 532 0248 FFF7FEFF 		bl	__aeabi_ddiv
 533              	.LVL90:
 534 024c 0AA3     		adr	r3, .L42
 535 024e D3E90023 		ldrd	r2, [r3]
 536 0252 FFF7FEFF 		bl	__aeabi_ddiv
 537              	.LVL91:
 538 0256 FFF7FEFF 		bl	__aeabi_d2uiz
 539              	.LVL92:
 540 025a A876     		strb	r0, [r5, #26]
 541              	.L36:
 177:functions.c   ****             }
 178:functions.c   ****        
 179:functions.c   ****             stabil(mouseData->angle);
 542              		.loc 1 179 0
 543 025c A87E     		ldrb	r0, [r5, #26]	@ zero_extendqisi2
 544 025e FFF7FEFF 		bl	stabil
 545              	.LVL93:
 180:functions.c   **** 
 181:functions.c   ****     
 182:functions.c   ****         
 183:functions.c   ****     if (mouseData->timesInterrupted == 250) {
 546              		.loc 1 183 0
 547 0262 2B8B     		ldrh	r3, [r5, #24]
 548 0264 FA2B     		cmp	r3, #250
ARM GAS  C:\Users\EmilR\AppData\Local\Temp\ccX7n0tm.s 			page 14


 549 0266 06D1     		bne	.L15
 184:functions.c   ****         mouseData->finalX = 0;
 550              		.loc 1 184 0
 551 0268 0023     		movs	r3, #0
 552 026a AB83     		strh	r3, [r5, #28]	@ movhi
 185:functions.c   ****         mouseData->finalY = 0;
 553              		.loc 1 185 0
 554 026c EB83     		strh	r3, [r5, #30]	@ movhi
 186:functions.c   ****         mouseData->timesInterrupted = 0;
 555              		.loc 1 186 0
 556 026e 2B83     		strh	r3, [r5, #24]	@ movhi
 187:functions.c   ****         stabil(200);
 557              		.loc 1 187 0
 558 0270 C820     		movs	r0, #200
 559 0272 FFF7FEFF 		bl	stabil
 560              	.LVL94:
 561              	.L15:
 562 0276 70BD     		pop	{r4, r5, r6, pc}
 563              	.LVL95:
 564              	.L43:
 565              		.align	3
 566              	.L42:
 567 0278 CDCCCCCC 		.word	-858993459
 568 027c CCCCFC3F 		.word	1073532108
 569 0280 00000000 		.word	0
 570 0284 0018A540 		.word	1084561408
 571 0288 00E88140 		.word	1082255360
 572 028c 00002440 		.word	1076101120
 573 0290 00208C40 		.word	1082925056
 574 0294 00209C40 		.word	1083973632
 575              		.cfi_endproc
 576              	.LFE65:
 577              		.size	ISR_getMouseData, .-ISR_getMouseData
 578              		.section	.text.initMouse,"ax",%progbits
 579              		.align	2
 580              		.global	initMouse
 581              		.thumb
 582              		.thumb_func
 583              		.type	initMouse, %function
 584              	initMouse:
 585              	.LFB66:
 188:functions.c   ****     }
 189:functions.c   **** //    sprintf(value,"X = %d | ",mouseData->finalX);
 190:functions.c   **** //    //UART_1_UartPutString(value);
 191:functions.c   **** //    sprintf(value,"Y = %d \n\r",mouseData->finalY);
 192:functions.c   **** //    //UART_1_UartPutString(value);
 193:functions.c   **** //    sprintf(value,"Distance = %d | ",distance);
 194:functions.c   **** //    //UART_1_UartPutString(value);
 195:functions.c   **** //    sprintf(value,"Angle = %d \n\r",angle);
 196:functions.c   **** //    //UART_1_UartPutString(value);
 197:functions.c   ****     
 198:functions.c   ****     
 199:functions.c   ****     
 200:functions.c   ****     
 201:functions.c   **** }
 202:functions.c   **** 
 203:functions.c   **** 
ARM GAS  C:\Users\EmilR\AppData\Local\Temp\ccX7n0tm.s 			page 15


 204:functions.c   **** void initMouse(uint8 *Data) {
 586              		.loc 1 204 0
 587              		.cfi_startproc
 588              		@ args = 0, pretend = 0, frame = 0
 589              		@ frame_needed = 0, uses_anonymous_args = 0
 590              	.LVL96:
 591 0000 38B5     		push	{r3, r4, r5, lr}
 592              		.cfi_def_cfa_offset 16
 593              		.cfi_offset 3, -16
 594              		.cfi_offset 4, -12
 595              		.cfi_offset 5, -8
 596              		.cfi_offset 14, -4
 597 0002 0546     		mov	r5, r0
 598              	.LVL97:
 205:functions.c   ****     uint8 i = 0;
 206:functions.c   ****     const uint8 dataSize = 8;
 207:functions.c   ****     
 208:functions.c   ****     PS2_Clock_Write(0);
 599              		.loc 1 208 0
 600 0004 0020     		movs	r0, #0
 601              	.LVL98:
 602 0006 FFF7FEFF 		bl	PS2_Clock_Write
 603              	.LVL99:
 209:functions.c   ****     
 210:functions.c   ****     CyDelayUs(150);
 604              		.loc 1 210 0
 605 000a 9620     		movs	r0, #150
 606 000c FFF7FEFF 		bl	CyDelayUs
 607              	.LVL100:
 211:functions.c   ****     PS2_Data_Write(0);
 608              		.loc 1 211 0
 609 0010 0020     		movs	r0, #0
 610 0012 FFF7FEFF 		bl	PS2_Data_Write
 611              	.LVL101:
 212:functions.c   ****     
 213:functions.c   ****     PS2_Clock_Write(1);
 612              		.loc 1 213 0
 613 0016 0120     		movs	r0, #1
 614 0018 FFF7FEFF 		bl	PS2_Clock_Write
 615              	.LVL102:
 214:functions.c   ****     PS2_Clock_Read();
 616              		.loc 1 214 0
 617 001c FFF7FEFF 		bl	PS2_Clock_Read
 618              	.LVL103:
 205:functions.c   ****     const uint8 dataSize = 8;
 619              		.loc 1 205 0
 620 0020 0024     		movs	r4, #0
 215:functions.c   ****     while (i < 11){
 621              		.loc 1 215 0
 622 0022 20E0     		b	.L45
 623              	.LVL104:
 624              	.L46:
 216:functions.c   ****         
 217:functions.c   ****         while(PS2_Clock_Read());
 625              		.loc 1 217 0 discriminator 1
 626 0024 FFF7FEFF 		bl	PS2_Clock_Read
 627              	.LVL105:
ARM GAS  C:\Users\EmilR\AppData\Local\Temp\ccX7n0tm.s 			page 16


 628 0028 0028     		cmp	r0, #0
 629 002a FBD1     		bne	.L46
 218:functions.c   ****         
 219:functions.c   ****         if (i == 0) {
 630              		.loc 1 219 0
 631 002c 14B9     		cbnz	r4, .L47
 220:functions.c   ****            PS2_Data_Write(0);
 632              		.loc 1 220 0
 633 002e FFF7FEFF 		bl	PS2_Data_Write
 634              	.LVL106:
 635 0032 10E0     		b	.L48
 636              	.L47:
 221:functions.c   ****         }
 222:functions.c   ****         
 223:functions.c   ****         else if (i == 9) {
 637              		.loc 1 223 0
 638 0034 092C     		cmp	r4, #9
 639 0036 03D1     		bne	.L49
 224:functions.c   ****            PS2_Data_Write(0);
 640              		.loc 1 224 0
 641 0038 0020     		movs	r0, #0
 642 003a FFF7FEFF 		bl	PS2_Data_Write
 643              	.LVL107:
 644 003e 0AE0     		b	.L48
 645              	.L49:
 225:functions.c   ****         }
 226:functions.c   ****         
 227:functions.c   ****         else if (i == 10) {
 646              		.loc 1 227 0
 647 0040 0A2C     		cmp	r4, #10
 648 0042 03D1     		bne	.L50
 228:functions.c   ****            PS2_Data_Write(1);
 649              		.loc 1 228 0
 650 0044 0120     		movs	r0, #1
 651 0046 FFF7FEFF 		bl	PS2_Data_Write
 652              	.LVL108:
 653 004a 04E0     		b	.L48
 654              	.L50:
 229:functions.c   ****         }
 230:functions.c   ****         
 231:functions.c   ****         else {
 232:functions.c   ****            PS2_Data_Write(Data[dataSize-i]);
 655              		.loc 1 232 0
 656 004c C4F10803 		rsb	r3, r4, #8
 657 0050 E85C     		ldrb	r0, [r5, r3]	@ zero_extendqisi2
 658 0052 FFF7FEFF 		bl	PS2_Data_Write
 659              	.LVL109:
 660              	.L48:
 233:functions.c   ****         }
 234:functions.c   ****         
 235:functions.c   ****         if (i < 10) {
 661              		.loc 1 235 0
 662 0056 092C     		cmp	r4, #9
 663 0058 03D8     		bhi	.L51
 664              	.L52:
 236:functions.c   ****             while(!PS2_Clock_Read());
 665              		.loc 1 236 0 discriminator 1
ARM GAS  C:\Users\EmilR\AppData\Local\Temp\ccX7n0tm.s 			page 17


 666 005a FFF7FEFF 		bl	PS2_Clock_Read
 667              	.LVL110:
 668 005e 0028     		cmp	r0, #0
 669 0060 FBD0     		beq	.L52
 670              	.L51:
 237:functions.c   ****         }
 238:functions.c   ****         i++;
 671              		.loc 1 238 0
 672 0062 0134     		adds	r4, r4, #1
 673              	.LVL111:
 674 0064 E4B2     		uxtb	r4, r4
 675              	.LVL112:
 676              	.L45:
 215:functions.c   ****         
 677              		.loc 1 215 0
 678 0066 0A2C     		cmp	r4, #10
 679 0068 DCD9     		bls	.L46
 239:functions.c   ****     }
 240:functions.c   ****     PS2_Data_Read();
 680              		.loc 1 240 0
 681 006a FFF7FEFF 		bl	PS2_Data_Read
 682              	.LVL113:
 241:functions.c   ****     PS2_Clock_Read();
 683              		.loc 1 241 0
 684 006e FFF7FEFF 		bl	PS2_Clock_Read
 685              	.LVL114:
 686 0072 38BD     		pop	{r3, r4, r5, pc}
 687              		.cfi_endproc
 688              	.LFE66:
 689              		.size	initMouse, .-initMouse
 690              		.section	.text.Init,"ax",%progbits
 691              		.align	2
 692              		.global	Init
 693              		.thumb
 694              		.thumb_func
 695              		.type	Init, %function
 696              	Init:
 697              	.LFB63:
  16:functions.c   ****     //UART_1_Start();
 698              		.loc 1 16 0
 699              		.cfi_startproc
 700              		@ args = 0, pretend = 0, frame = 8
 701              		@ frame_needed = 0, uses_anonymous_args = 0
 702              	.LVL115:
  22:functions.c   ****         mouseData->tmpMouseX[i] = 0;
 703              		.loc 1 22 0
 704 0000 0023     		movs	r3, #0
 705 0002 07E0     		b	.L55
 706              	.LVL116:
 707              	.L56:
  23:functions.c   ****         mouseData->tmpMouseY[i] = 0; 
 708              		.loc 1 23 0 discriminator 3
 709 0004 5AB2     		sxtb	r2, r3
 710 0006 0021     		movs	r1, #0
 711 0008 8154     		strb	r1, [r0, r2]
  24:functions.c   ****         mouseData->status[i] = 0; 
 712              		.loc 1 24 0 discriminator 3
ARM GAS  C:\Users\EmilR\AppData\Local\Temp\ccX7n0tm.s 			page 18


 713 000a 0244     		add	r2, r2, r0
 714 000c 1172     		strb	r1, [r2, #8]
  25:functions.c   ****     }
 715              		.loc 1 25 0 discriminator 3
 716 000e 1174     		strb	r1, [r2, #16]
  22:functions.c   ****         mouseData->tmpMouseX[i] = 0;
 717              		.loc 1 22 0 discriminator 3
 718 0010 0133     		adds	r3, r3, #1
 719              	.LVL117:
 720 0012 DBB2     		uxtb	r3, r3
 721              	.LVL118:
 722              	.L55:
  22:functions.c   ****         mouseData->tmpMouseX[i] = 0;
 723              		.loc 1 22 0 is_stmt 0 discriminator 1
 724 0014 5AB2     		sxtb	r2, r3
 725 0016 072A     		cmp	r2, #7
 726 0018 F4DD     		ble	.L56
  16:functions.c   ****     //UART_1_Start();
 727              		.loc 1 16 0 is_stmt 1
 728 001a 00B5     		push	{lr}
 729              		.cfi_def_cfa_offset 4
 730              		.cfi_offset 14, -4
 731 001c 83B0     		sub	sp, sp, #12
 732              		.cfi_def_cfa_offset 16
  27:functions.c   ****     mouseData->timesInterrupted = 0;
 733              		.loc 1 27 0
 734 001e 0023     		movs	r3, #0
 735              	.LVL119:
 736 0020 8383     		strh	r3, [r0, #28]	@ movhi
  28:functions.c   ****     mouseData->angle = 0;
 737              		.loc 1 28 0
 738 0022 0383     		strh	r3, [r0, #24]	@ movhi
  29:functions.c   ****     
 739              		.loc 1 29 0
 740 0024 8376     		strb	r3, [r0, #26]
  34:functions.c   ****     initMouse(initData);
 741              		.loc 1 34 0
 742 0026 054A     		ldr	r2, .L58
 743              	.LVL120:
 744 0028 6B46     		mov	r3, sp
 745 002a 1068     		ldr	r0, [r2]	@ unaligned
 746              	.LVL121:
 747 002c 5168     		ldr	r1, [r2, #4]	@ unaligned
 748 002e 03C3     		stmia	r3!, {r0, r1}
  35:functions.c   **** 
 749              		.loc 1 35 0
 750 0030 6846     		mov	r0, sp
 751 0032 FFF7FEFF 		bl	initMouse
 752              	.LVL122:
  41:functions.c   **** 
 753              		.loc 1 41 0
 754 0036 03B0     		add	sp, sp, #12
 755              		.cfi_def_cfa_offset 4
 756              		@ sp needed
 757 0038 5DF804FB 		ldr	pc, [sp], #4
 758              	.L59:
 759              		.align	2
ARM GAS  C:\Users\EmilR\AppData\Local\Temp\ccX7n0tm.s 			page 19


 760              	.L58:
 761 003c 00000000 		.word	.LANCHOR0
 762              		.cfi_endproc
 763              	.LFE63:
 764              		.size	Init, .-Init
 765              		.global	mouseX_global
 766              		.comm	statusData,4,4
 767              		.global	mouseDataY
 768              		.global	mouseDataX
 769              		.section	.rodata
 770              		.align	2
 771              		.set	.LANCHOR0,. + 0
 772              	.LC0:
 773 0000 01       		.byte	1
 774 0001 01       		.byte	1
 775 0002 01       		.byte	1
 776 0003 01       		.byte	1
 777 0004 00       		.byte	0
 778 0005 01       		.byte	1
 779 0006 00       		.byte	0
 780 0007 00       		.byte	0
 781              		.section	.rodata.str1.4,"aMS",%progbits,1
 782              		.align	2
 783              	.LC1:
 784 0000 2564207C 		.ascii	"%d | \000"
 784      2000
 785 0006 0000     		.space	2
 786              	.LC2:
 787 0008 256400   		.ascii	"%d\000"
 788 000b 00       		.bss
 789              		.align	1
 790              		.type	mouseX_global, %object
 791              		.size	mouseX_global, 2
 792              	mouseX_global:
 793 0000 0000     		.space	2
 794              		.type	mouseDataY, %object
 795              		.size	mouseDataY, 2
 796              	mouseDataY:
 797 0002 0000     		.space	2
 798              		.type	mouseDataX, %object
 799              		.size	mouseDataX, 2
 800              	mouseDataX:
 801 0004 0000     		.space	2
 802              		.text
 803              	.Letext0:
 804              		.file 2 "c:\\program files (x86)\\cypress\\psoc creator\\4.0\\psoc creator\\import\\gnu\\arm\\4.9.
 805              		.file 3 "c:\\program files (x86)\\cypress\\psoc creator\\4.0\\psoc creator\\import\\gnu\\arm\\4.9.
 806              		.file 4 "Generated_Source\\PSoC5/cytypes.h"
 807              		.file 5 "./functions.h"
 808              		.file 6 "Generated_Source\\PSoC5/core_cm3.h"
 809              		.file 7 "Generated_Source\\PSoC5/PS2_Data.h"
 810              		.file 8 "Generated_Source\\PSoC5/PS2_Clock.h"
 811              		.file 9 "c:\\program files (x86)\\cypress\\psoc creator\\4.0\\psoc creator\\import\\gnu\\arm\\4.9.
 812              		.file 10 "c:\\program files (x86)\\cypress\\psoc creator\\4.0\\psoc creator\\import\\gnu\\arm\\4.9
 813              		.file 11 "./main.h"
 814              		.file 12 "Generated_Source\\PSoC5/CyLib.h"