ARM GAS  C:\Users\EmilR\AppData\Local\Temp\cc6wBfEe.s 			page 1


   1              		.syntax unified
   2              		.cpu cortex-m3
   3              		.fpu softvfp
   4              		.eabi_attribute 20, 1
   5              		.eabi_attribute 21, 1
   6              		.eabi_attribute 23, 3
   7              		.eabi_attribute 24, 1
   8              		.eabi_attribute 25, 1
   9              		.eabi_attribute 26, 1
  10              		.eabi_attribute 30, 1
  11              		.eabi_attribute 34, 1
  12              		.eabi_attribute 18, 4
  13              		.thumb
  14              		.file	"strafe.c"
  15              		.text
  16              	.Ltext0:
  17              		.cfi_sections	.debug_frame
  18              		.section	.text.strafe,"ax",%progbits
  19              		.align	2
  20              		.global	strafe
  21              		.thumb
  22              		.thumb_func
  23              		.type	strafe, %function
  24              	strafe:
  25              	.LFB63:
  26              		.file 1 "strafe.c"
   1:strafe.c      **** #include <main.h>
   2:strafe.c      **** 
   3:strafe.c      **** extern uint8 i2cbuf[];
   4:strafe.c      **** extern uint8 oldbuf[];
   5:strafe.c      **** uint8 strafe(uint8 ang, uint8 ang2)
   6:strafe.c      **** {
  27              		.loc 1 6 0
  28              		.cfi_startproc
  29              		@ args = 0, pretend = 0, frame = 0
  30              		@ frame_needed = 0, uses_anonymous_args = 0
  31              	.LVL0:
  32 0000 38B5     		push	{r3, r4, r5, lr}
  33              		.cfi_def_cfa_offset 16
  34              		.cfi_offset 3, -16
  35              		.cfi_offset 4, -12
  36              		.cfi_offset 5, -8
  37              		.cfi_offset 14, -4
  38 0002 0446     		mov	r4, r0
  39              	.LVL1:
   7:strafe.c      ****     
   8:strafe.c      ****     uint8 newang = 0;
   9:strafe.c      ****     
  10:strafe.c      ****     //Opdatere oldbuf 
  11:strafe.c      ****     oldbuf[ANG_BACK_POS] = i2cbuf[ANG_BACK_POS];
  40              		.loc 1 11 0
  41 0004 364B     		ldr	r3, .L19
  42 0006 9A78     		ldrb	r2, [r3, #2]	@ zero_extendqisi2
  43 0008 364B     		ldr	r3, .L19+4
  44 000a 9A70     		strb	r2, [r3, #2]
  12:strafe.c      ****     
  13:strafe.c      ****      // Straff mode
ARM GAS  C:\Users\EmilR\AppData\Local\Temp\cc6wBfEe.s 			page 2


  14:strafe.c      ****  
  15:strafe.c      ****       //Front engine
  16:strafe.c      ****         //tæl counter op og drejer steppermotoren med uret
  17:strafe.c      **** 	if(ang > CounterF_ReadCounter() && ang < MAX_POS)
  45              		.loc 1 17 0
  46 000c FFF7FEFF 		bl	CounterF_ReadCounter
  47              	.LVL2:
  48 0010 A042     		cmp	r0, r4
  49 0012 1AD2     		bcs	.L2
  50              		.loc 1 17 0 is_stmt 0 discriminator 1
  51 0014 C82C     		cmp	r4, #200
  52 0016 18D8     		bhi	.L2
  18:strafe.c      ****     {
  19:strafe.c      ****         newang = ang - CounterF_ReadCounter();
  53              		.loc 1 19 0 is_stmt 1
  54 0018 FFF7FEFF 		bl	CounterF_ReadCounter
  55              	.LVL3:
  56 001c 201A     		subs	r0, r4, r0
  57 001e C5B2     		uxtb	r5, r0
  58              	.LVL4:
  20:strafe.c      ****         newang += CounterF_ReadCounter();
  59              		.loc 1 20 0
  60 0020 FFF7FEFF 		bl	CounterF_ReadCounter
  61              	.LVL5:
  62 0024 2844     		add	r0, r0, r5
  63 0026 C5B2     		uxtb	r5, r0
  64              	.LVL6:
  21:strafe.c      ****         
  22:strafe.c      ****         Dir_stepF_Write(HIGH);  
  65              		.loc 1 22 0
  66 0028 0120     		movs	r0, #1
  67 002a FFF7FEFF 		bl	Dir_stepF_Write
  68              	.LVL7:
  23:strafe.c      ****         PWMF1_Start();
  69              		.loc 1 23 0
  70 002e FFF7FEFF 		bl	PWMF1_Start
  71              	.LVL8:
  24:strafe.c      ****         while(CounterF_ReadCounter()!=newang)
  72              		.loc 1 24 0
  73 0032 03E0     		b	.L3
  74              	.L5:
  25:strafe.c      ****         {    
  26:strafe.c      ****            
  27:strafe.c      ****             if(ang != i2cbuf[ANG_FRONT_POS])
  75              		.loc 1 27 0
  76 0034 2A4B     		ldr	r3, .L19
  77 0036 1B78     		ldrb	r3, [r3]	@ zero_extendqisi2
  78 0038 A342     		cmp	r3, r4
  79 003a 03D1     		bne	.L4
  80              	.L3:
  24:strafe.c      ****         while(CounterF_ReadCounter()!=newang)
  81              		.loc 1 24 0
  82 003c FFF7FEFF 		bl	CounterF_ReadCounter
  83              	.LVL9:
  84 0040 A842     		cmp	r0, r5
  85 0042 F7D1     		bne	.L5
  86              	.L4:
ARM GAS  C:\Users\EmilR\AppData\Local\Temp\cc6wBfEe.s 			page 3


  28:strafe.c      ****             break;
  29:strafe.c      ****         }
  30:strafe.c      ****         PWMF1_Stop(); 
  87              		.loc 1 30 0
  88 0044 FFF7FEFF 		bl	PWMF1_Stop
  89              	.LVL10:
  90 0048 14E0     		b	.L6
  91              	.LVL11:
  92              	.L2:
  31:strafe.c      ****        
  32:strafe.c      ****     }
  33:strafe.c      **** 
  34:strafe.c      ****     //tæl counter ned og drejer steppermotoren mod uret
  35:strafe.c      ****     else if(ang < CounterF_ReadCounter() && ang > MIN_POS)
  93              		.loc 1 35 0
  94 004a FFF7FEFF 		bl	CounterF_ReadCounter
  95              	.LVL12:
  96 004e A042     		cmp	r0, r4
  97 0050 10D9     		bls	.L6
  98              		.loc 1 35 0 is_stmt 0 discriminator 1
  99 0052 7CB1     		cbz	r4, .L6
  36:strafe.c      ****     {
  37:strafe.c      ****         Dir_stepF_Write(LOW);
 100              		.loc 1 37 0 is_stmt 1
 101 0054 0020     		movs	r0, #0
 102 0056 FFF7FEFF 		bl	Dir_stepF_Write
 103              	.LVL13:
  38:strafe.c      ****         PWMF2_Start();
 104              		.loc 1 38 0
 105 005a FFF7FEFF 		bl	PWMF2_Start
 106              	.LVL14:
  39:strafe.c      ****         while(CounterF_ReadCounter()!=ang)
 107              		.loc 1 39 0
 108 005e 03E0     		b	.L7
 109              	.L9:
  40:strafe.c      ****         {    
  41:strafe.c      ****             
  42:strafe.c      ****             if(ang != i2cbuf[ANG_FRONT_POS])
 110              		.loc 1 42 0
 111 0060 1F4B     		ldr	r3, .L19
 112 0062 1B78     		ldrb	r3, [r3]	@ zero_extendqisi2
 113 0064 A342     		cmp	r3, r4
 114 0066 03D1     		bne	.L8
 115              	.L7:
  39:strafe.c      ****         while(CounterF_ReadCounter()!=ang)
 116              		.loc 1 39 0
 117 0068 FFF7FEFF 		bl	CounterF_ReadCounter
 118              	.LVL15:
 119 006c A042     		cmp	r0, r4
 120 006e F7D1     		bne	.L9
 121              	.L8:
  43:strafe.c      ****             break;
  44:strafe.c      ****         }
  45:strafe.c      ****         PWMF2_Stop();
 122              		.loc 1 45 0
 123 0070 FFF7FEFF 		bl	PWMF2_Stop
 124              	.LVL16:
ARM GAS  C:\Users\EmilR\AppData\Local\Temp\cc6wBfEe.s 			page 4


 125              	.L6:
  46:strafe.c      ****     }
  47:strafe.c      ****     
  48:strafe.c      ****     
  49:strafe.c      ****     
  50:strafe.c      ****     // Back engine
  51:strafe.c      ****          
  52:strafe.c      ****         
  53:strafe.c      ****     //tæl counter op og drejer steppermotoren med uret
  54:strafe.c      **** 	if(ang > CounterB_ReadCounter() && ang < MAX_POS)
 126              		.loc 1 54 0
 127 0074 FFF7FEFF 		bl	CounterB_ReadCounter
 128              	.LVL17:
 129 0078 A042     		cmp	r0, r4
 130 007a 1AD2     		bcs	.L10
 131              		.loc 1 54 0 is_stmt 0 discriminator 1
 132 007c C82C     		cmp	r4, #200
 133 007e 18D8     		bhi	.L10
  55:strafe.c      ****     {
  56:strafe.c      ****         newang = ang - CounterB_ReadCounter();
 134              		.loc 1 56 0 is_stmt 1
 135 0080 FFF7FEFF 		bl	CounterB_ReadCounter
 136              	.LVL18:
 137 0084 201A     		subs	r0, r4, r0
 138 0086 C5B2     		uxtb	r5, r0
 139              	.LVL19:
  57:strafe.c      ****         newang += CounterB_ReadCounter();
 140              		.loc 1 57 0
 141 0088 FFF7FEFF 		bl	CounterB_ReadCounter
 142              	.LVL20:
 143 008c 2844     		add	r0, r0, r5
 144 008e C5B2     		uxtb	r5, r0
 145              	.LVL21:
  58:strafe.c      ****         
  59:strafe.c      ****         Dir_stepB_Write(HIGH);  
 146              		.loc 1 59 0
 147 0090 0120     		movs	r0, #1
 148 0092 FFF7FEFF 		bl	Dir_stepB_Write
 149              	.LVL22:
  60:strafe.c      ****         PWMB1_Start();
 150              		.loc 1 60 0
 151 0096 FFF7FEFF 		bl	PWMB1_Start
 152              	.LVL23:
  61:strafe.c      ****         while(CounterB_ReadCounter()!=newang)
 153              		.loc 1 61 0
 154 009a 03E0     		b	.L11
 155              	.L13:
  62:strafe.c      ****         {    
  63:strafe.c      ****            
  64:strafe.c      ****             if(ang != i2cbuf[ANG_BACK_POS])
 156              		.loc 1 64 0
 157 009c 104B     		ldr	r3, .L19
 158 009e 9B78     		ldrb	r3, [r3, #2]	@ zero_extendqisi2
 159 00a0 A342     		cmp	r3, r4
 160 00a2 03D1     		bne	.L12
 161              	.L11:
  61:strafe.c      ****         while(CounterB_ReadCounter()!=newang)
ARM GAS  C:\Users\EmilR\AppData\Local\Temp\cc6wBfEe.s 			page 5


 162              		.loc 1 61 0
 163 00a4 FFF7FEFF 		bl	CounterB_ReadCounter
 164              	.LVL24:
 165 00a8 A842     		cmp	r0, r5
 166 00aa F7D1     		bne	.L13
 167              	.L12:
  65:strafe.c      ****             break;
  66:strafe.c      ****         }
  67:strafe.c      ****         PWMB1_Stop(); 
 168              		.loc 1 67 0
 169 00ac FFF7FEFF 		bl	PWMB1_Stop
 170              	.LVL25:
 171 00b0 14E0     		b	.L14
 172              	.LVL26:
 173              	.L10:
  68:strafe.c      ****        
  69:strafe.c      ****     }
  70:strafe.c      **** 
  71:strafe.c      ****     //tæl counter ned og drejer steppermotoren mod uret
  72:strafe.c      ****     else if(ang < CounterB_ReadCounter() && ang > MIN_POS)
 174              		.loc 1 72 0
 175 00b2 FFF7FEFF 		bl	CounterB_ReadCounter
 176              	.LVL27:
 177 00b6 A042     		cmp	r0, r4
 178 00b8 10D9     		bls	.L14
 179              		.loc 1 72 0 is_stmt 0 discriminator 1
 180 00ba 7CB1     		cbz	r4, .L14
  73:strafe.c      ****     {
  74:strafe.c      ****         Dir_stepB_Write(LOW);
 181              		.loc 1 74 0 is_stmt 1
 182 00bc 0020     		movs	r0, #0
 183 00be FFF7FEFF 		bl	Dir_stepB_Write
 184              	.LVL28:
  75:strafe.c      ****         PWMB2_Start();
 185              		.loc 1 75 0
 186 00c2 FFF7FEFF 		bl	PWMB2_Start
 187              	.LVL29:
  76:strafe.c      ****         while(CounterB_ReadCounter()!=ang)
 188              		.loc 1 76 0
 189 00c6 03E0     		b	.L15
 190              	.L17:
  77:strafe.c      ****         {    
  78:strafe.c      ****             
  79:strafe.c      ****             if(ang != i2cbuf[ANG_BACK_POS])
 191              		.loc 1 79 0
 192 00c8 054B     		ldr	r3, .L19
 193 00ca 9B78     		ldrb	r3, [r3, #2]	@ zero_extendqisi2
 194 00cc A342     		cmp	r3, r4
 195 00ce 03D1     		bne	.L16
 196              	.L15:
  76:strafe.c      ****         while(CounterB_ReadCounter()!=ang)
 197              		.loc 1 76 0
 198 00d0 FFF7FEFF 		bl	CounterB_ReadCounter
 199              	.LVL30:
 200 00d4 A042     		cmp	r0, r4
 201 00d6 F7D1     		bne	.L17
 202              	.L16:
ARM GAS  C:\Users\EmilR\AppData\Local\Temp\cc6wBfEe.s 			page 6


  80:strafe.c      ****             break;
  81:strafe.c      ****         }
  82:strafe.c      ****         PWMB2_Stop();
 203              		.loc 1 82 0
 204 00d8 FFF7FEFF 		bl	PWMB2_Stop
 205              	.LVL31:
 206              	.L14:
  83:strafe.c      ****     }
  84:strafe.c      ****     return 0;
  85:strafe.c      **** }
 207              		.loc 1 85 0
 208 00dc 0020     		movs	r0, #0
 209 00de 38BD     		pop	{r3, r4, r5, pc}
 210              	.L20:
 211              		.align	2
 212              	.L19:
 213 00e0 00000000 		.word	i2cbuf
 214 00e4 00000000 		.word	oldbuf
 215              		.cfi_endproc
 216              	.LFE63:
 217              		.size	strafe, .-strafe
 218              		.text
 219              	.Letext0:
 220              		.file 2 "c:\\program files (x86)\\cypress\\psoc creator\\4.0\\psoc creator\\import\\gnu\\arm\\4.9.
 221              		.file 3 "c:\\program files (x86)\\cypress\\psoc creator\\4.0\\psoc creator\\import\\gnu\\arm\\4.9.
 222              		.file 4 "Generated_Source\\PSoC5/cytypes.h"
 223              		.file 5 "Generated_Source\\PSoC5/core_cm3.h"
 224              		.file 6 "Generated_Source\\PSoC5/PWMF1.h"
 225              		.file 7 "Generated_Source\\PSoC5/PWMF2.h"
 226              		.file 8 "Generated_Source\\PSoC5/CounterF.h"
 227              		.file 9 "Generated_Source\\PSoC5/CounterB.h"
 228              		.file 10 "Generated_Source\\PSoC5/Dir_stepF.h"
 229              		.file 11 "Generated_Source\\PSoC5/Dir_stepB.h"
 230              		.file 12 "Generated_Source\\PSoC5/PWMB1.h"
 231              		.file 13 "Generated_Source\\PSoC5/PWMB2.h"