ARM GAS  C:\Users\Anders\AppData\Local\Temp\ccjpNoko.s 			page 1


   1              		.syntax unified
   2              		.cpu cortex-m3
   3              		.fpu softvfp
   4              		.eabi_attribute 20, 1
   5              		.eabi_attribute 21, 1
   6              		.eabi_attribute 23, 3
   7              		.eabi_attribute 24, 1
   8              		.eabi_attribute 25, 1
   9              		.eabi_attribute 26, 1
  10              		.eabi_attribute 30, 1
  11              		.eabi_attribute 34, 1
  12              		.eabi_attribute 18, 4
  13              		.thumb
  14              		.file	"run_back.c"
  15              		.text
  16              	.Ltext0:
  17              		.cfi_sections	.debug_frame
  18              		.section	.text.run_back,"ax",%progbits
  19              		.align	2
  20              		.global	run_back
  21              		.thumb
  22              		.thumb_func
  23              		.type	run_back, %function
  24              	run_back:
  25              	.LFB63:
  26              		.file 1 "run_back.c"
   1:run_back.c    **** #include <main.h>
   2:run_back.c    **** 
   3:run_back.c    **** extern uint8 i2cbuf[];
   4:run_back.c    **** extern uint8 oldbuf[];
   5:run_back.c    **** uint8 run_back(uint8 ang, uint8 speed)
   6:run_back.c    **** {
  27              		.loc 1 6 0
  28              		.cfi_startproc
  29              		@ args = 0, pretend = 0, frame = 0
  30              		@ frame_needed = 0, uses_anonymous_args = 0
  31              	.LVL0:
  32 0000 38B5     		push	{r3, r4, r5, lr}
  33              		.cfi_def_cfa_offset 16
  34              		.cfi_offset 3, -16
  35              		.cfi_offset 4, -12
  36              		.cfi_offset 5, -8
  37              		.cfi_offset 14, -4
  38 0002 0446     		mov	r4, r0
  39 0004 0D46     		mov	r5, r1
  40              	.LVL1:
   7:run_back.c    ****     
   8:run_back.c    ****     uint8 newang = 0;
   9:run_back.c    ****     
  10:run_back.c    ****     //Opdatere oldbuf 
  11:run_back.c    ****     oldbuf[ANG_BACK_POS] = i2cbuf[ANG_BACK_POS];
  41              		.loc 1 11 0
  42 0006 204B     		ldr	r3, .L11
  43 0008 9A78     		ldrb	r2, [r3, #2]	@ zero_extendqisi2
  44 000a 204B     		ldr	r3, .L11+4
  45 000c 9A70     		strb	r2, [r3, #2]
  12:run_back.c    ****     
ARM GAS  C:\Users\Anders\AppData\Local\Temp\ccjpNoko.s 			page 2


  13:run_back.c    ****     //Sætter hastighed på fremdriftsmotor 
  14:run_back.c    ****     SpeedBackW_Write(HIGH);
  46              		.loc 1 14 0
  47 000e 0120     		movs	r0, #1
  48              	.LVL2:
  49 0010 FFF7FEFF 		bl	SpeedBackW_Write
  50              	.LVL3:
  15:run_back.c    ****     PWMSB_WriteCompare(speed);
  51              		.loc 1 15 0
  52 0014 2846     		mov	r0, r5
  53 0016 FFF7FEFF 		bl	PWMSB_WriteCompare
  54              	.LVL4:
  16:run_back.c    ****     
  17:run_back.c    ****     //tæl counter op og drejer steppermotoren med uret
  18:run_back.c    **** 	if(ang > CounterB_ReadCounter() && ang < MAX_POS)
  55              		.loc 1 18 0
  56 001a FFF7FEFF 		bl	CounterB_ReadCounter
  57              	.LVL5:
  58 001e A042     		cmp	r0, r4
  59 0020 1AD2     		bcs	.L2
  60              		.loc 1 18 0 is_stmt 0 discriminator 1
  61 0022 C82C     		cmp	r4, #200
  62 0024 18D8     		bhi	.L2
  19:run_back.c    ****     {
  20:run_back.c    ****         newang = ang - CounterB_ReadCounter();
  63              		.loc 1 20 0 is_stmt 1
  64 0026 FFF7FEFF 		bl	CounterB_ReadCounter
  65              	.LVL6:
  66 002a 201A     		subs	r0, r4, r0
  67 002c C5B2     		uxtb	r5, r0
  68              	.LVL7:
  21:run_back.c    ****         newang += CounterB_ReadCounter();
  69              		.loc 1 21 0
  70 002e FFF7FEFF 		bl	CounterB_ReadCounter
  71              	.LVL8:
  72 0032 2844     		add	r0, r0, r5
  73 0034 C5B2     		uxtb	r5, r0
  74              	.LVL9:
  22:run_back.c    ****         
  23:run_back.c    ****         Dir_stepB_Write(HIGH);  
  75              		.loc 1 23 0
  76 0036 0120     		movs	r0, #1
  77 0038 FFF7FEFF 		bl	Dir_stepB_Write
  78              	.LVL10:
  24:run_back.c    ****         PWMB1_Start();
  79              		.loc 1 24 0
  80 003c FFF7FEFF 		bl	PWMB1_Start
  81              	.LVL11:
  25:run_back.c    ****         while(CounterB_ReadCounter()!=newang)
  82              		.loc 1 25 0
  83 0040 03E0     		b	.L3
  84              	.L5:
  26:run_back.c    ****         {    
  27:run_back.c    ****            
  28:run_back.c    ****             if(ang != i2cbuf[ANG_BACK_POS])
  85              		.loc 1 28 0
  86 0042 114B     		ldr	r3, .L11
ARM GAS  C:\Users\Anders\AppData\Local\Temp\ccjpNoko.s 			page 3


  87 0044 9B78     		ldrb	r3, [r3, #2]	@ zero_extendqisi2
  88 0046 A342     		cmp	r3, r4
  89 0048 03D1     		bne	.L4
  90              	.L3:
  25:run_back.c    ****         while(CounterB_ReadCounter()!=newang)
  91              		.loc 1 25 0
  92 004a FFF7FEFF 		bl	CounterB_ReadCounter
  93              	.LVL12:
  94 004e A842     		cmp	r0, r5
  95 0050 F7D1     		bne	.L5
  96              	.L4:
  29:run_back.c    ****             break;
  30:run_back.c    ****         }
  31:run_back.c    ****         PWMB1_Stop(); 
  97              		.loc 1 31 0
  98 0052 FFF7FEFF 		bl	PWMB1_Stop
  99              	.LVL13:
 100 0056 14E0     		b	.L6
 101              	.LVL14:
 102              	.L2:
  32:run_back.c    ****        
  33:run_back.c    ****     }
  34:run_back.c    **** 
  35:run_back.c    ****     //tæl counter ned og drejer steppermotoren mod uret
  36:run_back.c    ****     else if(ang < CounterF_ReadCounter() && ang > MIN_POS)
 103              		.loc 1 36 0
 104 0058 FFF7FEFF 		bl	CounterF_ReadCounter
 105              	.LVL15:
 106 005c A042     		cmp	r0, r4
 107 005e 10D9     		bls	.L6
 108              		.loc 1 36 0 is_stmt 0 discriminator 1
 109 0060 7CB1     		cbz	r4, .L6
  37:run_back.c    ****     {
  38:run_back.c    ****         Dir_stepB_Write(LOW);
 110              		.loc 1 38 0 is_stmt 1
 111 0062 0020     		movs	r0, #0
 112 0064 FFF7FEFF 		bl	Dir_stepB_Write
 113              	.LVL16:
  39:run_back.c    ****         PWMB2_Start();
 114              		.loc 1 39 0
 115 0068 FFF7FEFF 		bl	PWMB2_Start
 116              	.LVL17:
  40:run_back.c    ****         while(CounterB_ReadCounter()!=ang)
 117              		.loc 1 40 0
 118 006c 03E0     		b	.L7
 119              	.L9:
  41:run_back.c    ****         {    
  42:run_back.c    ****             
  43:run_back.c    ****             if(ang != i2cbuf[ANG_BACK_POS])
 120              		.loc 1 43 0
 121 006e 064B     		ldr	r3, .L11
 122 0070 9B78     		ldrb	r3, [r3, #2]	@ zero_extendqisi2
 123 0072 A342     		cmp	r3, r4
 124 0074 03D1     		bne	.L8
 125              	.L7:
  40:run_back.c    ****         while(CounterB_ReadCounter()!=ang)
 126              		.loc 1 40 0
ARM GAS  C:\Users\Anders\AppData\Local\Temp\ccjpNoko.s 			page 4


 127 0076 FFF7FEFF 		bl	CounterB_ReadCounter
 128              	.LVL18:
 129 007a A042     		cmp	r0, r4
 130 007c F7D1     		bne	.L9
 131              	.L8:
  44:run_back.c    ****             break;
  45:run_back.c    ****         }
  46:run_back.c    ****         PWMB2_Stop();
 132              		.loc 1 46 0
 133 007e FFF7FEFF 		bl	PWMB2_Stop
 134              	.LVL19:
 135              	.L6:
  47:run_back.c    ****     }
  48:run_back.c    ****     return 0;
  49:run_back.c    **** }
 136              		.loc 1 49 0
 137 0082 0020     		movs	r0, #0
 138 0084 38BD     		pop	{r3, r4, r5, pc}
 139              	.L12:
 140 0086 00BF     		.align	2
 141              	.L11:
 142 0088 00000000 		.word	i2cbuf
 143 008c 00000000 		.word	oldbuf
 144              		.cfi_endproc
 145              	.LFE63:
 146              		.size	run_back, .-run_back
 147              		.text
 148              	.Letext0:
 149              		.file 2 "c:\\program files (x86)\\cypress\\psoc creator\\4.0\\psoc creator\\import\\gnu\\arm\\4.9.
 150              		.file 3 "c:\\program files (x86)\\cypress\\psoc creator\\4.0\\psoc creator\\import\\gnu\\arm\\4.9.
 151              		.file 4 "Generated_Source\\PSoC5/cytypes.h"
 152              		.file 5 "Generated_Source\\PSoC5/core_cm3.h"
 153              		.file 6 "Generated_Source\\PSoC5/SpeedBackW.h"
 154              		.file 7 "Generated_Source\\PSoC5/PWMSB.h"
 155              		.file 8 "Generated_Source\\PSoC5/Dir_stepB.h"
 156              		.file 9 "Generated_Source\\PSoC5/PWMB1.h"
 157              		.file 10 "Generated_Source\\PSoC5/CounterB.h"
 158              		.file 11 "Generated_Source\\PSoC5/CounterF.h"
 159              		.file 12 "Generated_Source\\PSoC5/PWMB2.h"