ARM GAS  C:\Users\Anders\AppData\Local\Temp\ccfoezKk.s 			page 1


   1              		.syntax unified
   2              		.cpu cortex-m3
   3              		.fpu softvfp
   4              		.eabi_attribute 20, 1
   5              		.eabi_attribute 21, 1
   6              		.eabi_attribute 23, 3
   7              		.eabi_attribute 24, 1
   8              		.eabi_attribute 25, 1
   9              		.eabi_attribute 26, 1
  10              		.eabi_attribute 30, 1
  11              		.eabi_attribute 34, 1
  12              		.eabi_attribute 18, 4
  13              		.thumb
  14              		.file	"run_front.c"
  15              		.text
  16              	.Ltext0:
  17              		.cfi_sections	.debug_frame
  18              		.section	.text.run_front,"ax",%progbits
  19              		.align	2
  20              		.global	run_front
  21              		.thumb
  22              		.thumb_func
  23              		.type	run_front, %function
  24              	run_front:
  25              	.LFB63:
  26              		.file 1 "run_front.c"
   1:run_front.c   **** #include <main.h>
   2:run_front.c   **** 
   3:run_front.c   **** extern uint8 i2cbuf[];
   4:run_front.c   **** extern uint8 oldbuf[];
   5:run_front.c   **** uint8 run_front(uint8 ang, uint8 speed)
   6:run_front.c   **** {
  27              		.loc 1 6 0
  28              		.cfi_startproc
  29              		@ args = 0, pretend = 0, frame = 0
  30              		@ frame_needed = 0, uses_anonymous_args = 0
  31              	.LVL0:
  32 0000 38B5     		push	{r3, r4, r5, lr}
  33              		.cfi_def_cfa_offset 16
  34              		.cfi_offset 3, -16
  35              		.cfi_offset 4, -12
  36              		.cfi_offset 5, -8
  37              		.cfi_offset 14, -4
  38 0002 0446     		mov	r4, r0
  39 0004 0D46     		mov	r5, r1
  40              	.LVL1:
   7:run_front.c   ****     
   8:run_front.c   ****     uint8 newang = 0;
   9:run_front.c   ****     
  10:run_front.c   ****     //Opdatere oldbuf 
  11:run_front.c   ****     oldbuf[ANG_FRONT_POS] = i2cbuf[ANG_FRONT_POS];
  41              		.loc 1 11 0
  42 0006 254A     		ldr	r2, .L11
  43 0008 1178     		ldrb	r1, [r2]	@ zero_extendqisi2
  44              	.LVL2:
  45 000a 254B     		ldr	r3, .L11+4
  46 000c 1970     		strb	r1, [r3]
ARM GAS  C:\Users\Anders\AppData\Local\Temp\ccfoezKk.s 			page 2


  12:run_front.c   ****     oldbuf[SPEED_FRONT_POS] = i2cbuf[SPEED_FRONT_POS];
  47              		.loc 1 12 0
  48 000e 5278     		ldrb	r2, [r2, #1]	@ zero_extendqisi2
  49 0010 5A70     		strb	r2, [r3, #1]
  13:run_front.c   ****     
  14:run_front.c   ****     
  15:run_front.c   ****     //Sætter hastighed på fremdriftsmotor 
  16:run_front.c   ****     SpeedForW_Write(HIGH);
  50              		.loc 1 16 0
  51 0012 0120     		movs	r0, #1
  52              	.LVL3:
  53 0014 FFF7FEFF 		bl	SpeedForW_Write
  54              	.LVL4:
  17:run_front.c   ****     PWMSF_WriteCompare(speed);
  55              		.loc 1 17 0
  56 0018 2846     		mov	r0, r5
  57 001a FFF7FEFF 		bl	PWMSF_WriteCompare
  58              	.LVL5:
  18:run_front.c   ****     
  19:run_front.c   ****     //tæl counter op og drejer steppermotoren med uret
  20:run_front.c   **** 	if(ang > CounterF_ReadCounter() && ang < MAX_POS)
  59              		.loc 1 20 0
  60 001e FFF7FEFF 		bl	CounterF_ReadCounter
  61              	.LVL6:
  62 0022 A042     		cmp	r0, r4
  63 0024 23D2     		bcs	.L2
  64              		.loc 1 20 0 is_stmt 0 discriminator 1
  65 0026 C82C     		cmp	r4, #200
  66 0028 21D8     		bhi	.L2
  21:run_front.c   ****     {
  22:run_front.c   ****         newang = ang - CounterF_ReadCounter();
  67              		.loc 1 22 0 is_stmt 1
  68 002a FFF7FEFF 		bl	CounterF_ReadCounter
  69              	.LVL7:
  70 002e 201A     		subs	r0, r4, r0
  71 0030 C5B2     		uxtb	r5, r0
  72              	.LVL8:
  23:run_front.c   ****         newang += CounterF_ReadCounter();
  73              		.loc 1 23 0
  74 0032 FFF7FEFF 		bl	CounterF_ReadCounter
  75              	.LVL9:
  76 0036 2844     		add	r0, r0, r5
  77 0038 C5B2     		uxtb	r5, r0
  78              	.LVL10:
  24:run_front.c   ****         
  25:run_front.c   ****         Dir_stepF_Write(HIGH);  
  79              		.loc 1 25 0
  80 003a 0120     		movs	r0, #1
  81 003c FFF7FEFF 		bl	Dir_stepF_Write
  82              	.LVL11:
  26:run_front.c   ****         //PWMF1_Start();
  27:run_front.c   ****         step_1_Forward_cnt = newang;
  83              		.loc 1 27 0
  84 0040 184B     		ldr	r3, .L11+8
  85 0042 1D70     		strb	r5, [r3]
  28:run_front.c   ****         step_1_CtrlReg_Dir_Write(1);
  86              		.loc 1 28 0
ARM GAS  C:\Users\Anders\AppData\Local\Temp\ccfoezKk.s 			page 3


  87 0044 0120     		movs	r0, #1
  88 0046 FFF7FEFF 		bl	step_1_CtrlReg_Dir_Write
  89              	.LVL12:
  29:run_front.c   ****         step_1_CtrlReg_Run_Write(1);
  90              		.loc 1 29 0
  91 004a 0120     		movs	r0, #1
  92 004c FFF7FEFF 		bl	step_1_CtrlReg_Run_Write
  93              	.LVL13:
  30:run_front.c   ****         while(CounterF_ReadCounter()!=newang)
  94              		.loc 1 30 0
  95 0050 03E0     		b	.L3
  96              	.L5:
  31:run_front.c   ****         {    
  32:run_front.c   ****             
  33:run_front.c   ****             if(ang != i2cbuf[ANG_FRONT_POS])
  97              		.loc 1 33 0
  98 0052 124B     		ldr	r3, .L11
  99 0054 1B78     		ldrb	r3, [r3]	@ zero_extendqisi2
 100 0056 A342     		cmp	r3, r4
 101 0058 03D1     		bne	.L4
 102              	.L3:
  30:run_front.c   ****         while(CounterF_ReadCounter()!=newang)
 103              		.loc 1 30 0
 104 005a FFF7FEFF 		bl	CounterF_ReadCounter
 105              	.LVL14:
 106 005e A842     		cmp	r0, r5
 107 0060 F7D1     		bne	.L5
 108              	.L4:
  34:run_front.c   ****             break;
  35:run_front.c   ****         }
  36:run_front.c   ****         //PWMF1_Stop();
  37:run_front.c   ****         step_1_CtrlReg_Dir_Write(0);
 109              		.loc 1 37 0
 110 0062 0020     		movs	r0, #0
 111 0064 FFF7FEFF 		bl	step_1_CtrlReg_Dir_Write
 112              	.LVL15:
  38:run_front.c   ****         step_1_CtrlReg_Run_Write(0);
 113              		.loc 1 38 0
 114 0068 0020     		movs	r0, #0
 115 006a FFF7FEFF 		bl	step_1_CtrlReg_Run_Write
 116              	.LVL16:
 117              	.L2:
  39:run_front.c   ****        
  40:run_front.c   ****     }
  41:run_front.c   **** 
  42:run_front.c   ****     //tæl counter ned og drejer steppermotoren mod uret
  43:run_front.c   ****     if(ang < CounterF_ReadCounter() && ang > MIN_POS)
 118              		.loc 1 43 0
 119 006e FFF7FEFF 		bl	CounterF_ReadCounter
 120              	.LVL17:
 121 0072 A042     		cmp	r0, r4
 122 0074 10D9     		bls	.L6
 123              		.loc 1 43 0 is_stmt 0 discriminator 1
 124 0076 7CB1     		cbz	r4, .L6
  44:run_front.c   ****     {
  45:run_front.c   ****         Dir_stepF_Write(LOW);
 125              		.loc 1 45 0 is_stmt 1
ARM GAS  C:\Users\Anders\AppData\Local\Temp\ccfoezKk.s 			page 4


 126 0078 0020     		movs	r0, #0
 127 007a FFF7FEFF 		bl	Dir_stepF_Write
 128              	.LVL18:
  46:run_front.c   ****         PWMF2_Start();
 129              		.loc 1 46 0
 130 007e FFF7FEFF 		bl	PWMF2_Start
 131              	.LVL19:
  47:run_front.c   ****         while(CounterF_ReadCounter()!=ang)
 132              		.loc 1 47 0
 133 0082 03E0     		b	.L7
 134              	.L9:
  48:run_front.c   ****         {    
  49:run_front.c   ****             
  50:run_front.c   ****             if(ang != i2cbuf[ANG_FRONT_POS])
 135              		.loc 1 50 0
 136 0084 054B     		ldr	r3, .L11
 137 0086 1B78     		ldrb	r3, [r3]	@ zero_extendqisi2
 138 0088 A342     		cmp	r3, r4
 139 008a 03D1     		bne	.L8
 140              	.L7:
  47:run_front.c   ****         while(CounterF_ReadCounter()!=ang)
 141              		.loc 1 47 0
 142 008c FFF7FEFF 		bl	CounterF_ReadCounter
 143              	.LVL20:
 144 0090 A042     		cmp	r0, r4
 145 0092 F7D1     		bne	.L9
 146              	.L8:
  51:run_front.c   ****             break;
  52:run_front.c   ****         }
  53:run_front.c   ****         PWMF2_Stop();
 147              		.loc 1 53 0
 148 0094 FFF7FEFF 		bl	PWMF2_Stop
 149              	.LVL21:
 150              	.L6:
  54:run_front.c   ****     }
  55:run_front.c   ****     return 0;
  56:run_front.c   **** }
 151              		.loc 1 56 0
 152 0098 0020     		movs	r0, #0
 153 009a 38BD     		pop	{r3, r4, r5, pc}
 154              	.L12:
 155              		.align	2
 156              	.L11:
 157 009c 00000000 		.word	i2cbuf
 158 00a0 00000000 		.word	oldbuf
 159 00a4 05640040 		.word	1073767429
 160              		.cfi_endproc
 161              	.LFE63:
 162              		.size	run_front, .-run_front
 163              		.text
 164              	.Letext0:
 165              		.file 2 "c:\\program files (x86)\\cypress\\psoc creator\\4.0\\psoc creator\\import\\gnu\\arm\\4.9.
 166              		.file 3 "c:\\program files (x86)\\cypress\\psoc creator\\4.0\\psoc creator\\import\\gnu\\arm\\4.9.
 167              		.file 4 "Generated_Source\\PSoC5/cytypes.h"
 168              		.file 5 "Generated_Source\\PSoC5/core_cm3.h"
 169              		.file 6 "Generated_Source\\PSoC5/SpeedForW.h"
 170              		.file 7 "Generated_Source\\PSoC5/PWMSF.h"
ARM GAS  C:\Users\Anders\AppData\Local\Temp\ccfoezKk.s 			page 5


 171              		.file 8 "Generated_Source\\PSoC5/Dir_stepF.h"
 172              		.file 9 "Generated_Source\\PSoC5/step_1_CtrlReg_Dir.h"
 173              		.file 10 "Generated_Source\\PSoC5/step_1_CtrlReg_Run.h"
 174              		.file 11 "Generated_Source\\PSoC5/PWMF2.h"
 175              		.file 12 "Generated_Source\\PSoC5/CounterF.h"