ARM GAS  C:\Users\Anders\AppData\Local\Temp\ccut6fBP.s 			page 1


   1              		.syntax unified
   2              		.cpu cortex-m3
   3              		.fpu softvfp
   4              		.eabi_attribute 20, 1
   5              		.eabi_attribute 21, 1
   6              		.eabi_attribute 23, 3
   7              		.eabi_attribute 24, 1
   8              		.eabi_attribute 25, 1
   9              		.eabi_attribute 26, 1
  10              		.eabi_attribute 30, 1
  11              		.eabi_attribute 34, 1
  12              		.eabi_attribute 18, 4
  13              		.thumb
  14              		.file	"I2CS.c"
  15              		.text
  16              	.Ltext0:
  17              		.cfi_sections	.debug_frame
  18              		.section	.text.I2CS_Init,"ax",%progbits
  19              		.align	2
  20              		.global	I2CS_Init
  21              		.thumb
  22              		.thumb_func
  23              		.type	I2CS_Init, %function
  24              	I2CS_Init:
  25              	.LFB0:
  26              		.file 1 "Generated_Source\\PSoC5\\I2CS.c"
   1:Generated_Source\PSoC5/I2CS.c **** /*******************************************************************************
   2:Generated_Source\PSoC5/I2CS.c **** * File Name: I2CS.c
   3:Generated_Source\PSoC5/I2CS.c **** * Version 3.50
   4:Generated_Source\PSoC5/I2CS.c **** *
   5:Generated_Source\PSoC5/I2CS.c **** * Description:
   6:Generated_Source\PSoC5/I2CS.c **** *  This file provides the source code of APIs for the I2C component.
   7:Generated_Source\PSoC5/I2CS.c **** *  The actual protocol and operation code resides in the interrupt service
   8:Generated_Source\PSoC5/I2CS.c **** *  routine file.
   9:Generated_Source\PSoC5/I2CS.c **** *
  10:Generated_Source\PSoC5/I2CS.c **** *******************************************************************************
  11:Generated_Source\PSoC5/I2CS.c **** * Copyright 2008-2015, Cypress Semiconductor Corporation. All rights reserved.
  12:Generated_Source\PSoC5/I2CS.c **** * You may use this file only in accordance with the license, terms, conditions,
  13:Generated_Source\PSoC5/I2CS.c **** * disclaimers, and limitations in the end user license agreement accompanying
  14:Generated_Source\PSoC5/I2CS.c **** * the software package with which this file was provided.
  15:Generated_Source\PSoC5/I2CS.c **** *******************************************************************************/
  16:Generated_Source\PSoC5/I2CS.c **** 
  17:Generated_Source\PSoC5/I2CS.c **** #include "I2CS_PVT.h"
  18:Generated_Source\PSoC5/I2CS.c **** 
  19:Generated_Source\PSoC5/I2CS.c **** 
  20:Generated_Source\PSoC5/I2CS.c **** /**********************************
  21:Generated_Source\PSoC5/I2CS.c **** *      System variables
  22:Generated_Source\PSoC5/I2CS.c **** **********************************/
  23:Generated_Source\PSoC5/I2CS.c **** 
  24:Generated_Source\PSoC5/I2CS.c **** uint8 I2CS_initVar = 0u; /* Defines if component was initialized */
  25:Generated_Source\PSoC5/I2CS.c **** 
  26:Generated_Source\PSoC5/I2CS.c **** volatile uint8 I2CS_state;  /* Current state of I2C FSM */
  27:Generated_Source\PSoC5/I2CS.c **** 
  28:Generated_Source\PSoC5/I2CS.c **** 
  29:Generated_Source\PSoC5/I2CS.c **** /*******************************************************************************
  30:Generated_Source\PSoC5/I2CS.c **** * Function Name: I2CS_Init
  31:Generated_Source\PSoC5/I2CS.c **** ********************************************************************************
ARM GAS  C:\Users\Anders\AppData\Local\Temp\ccut6fBP.s 			page 2


  32:Generated_Source\PSoC5/I2CS.c **** *
  33:Generated_Source\PSoC5/I2CS.c **** * Summary:
  34:Generated_Source\PSoC5/I2CS.c **** *  Initializes I2C registers with initial values provided from customizer.
  35:Generated_Source\PSoC5/I2CS.c **** *
  36:Generated_Source\PSoC5/I2CS.c **** * Parameters:
  37:Generated_Source\PSoC5/I2CS.c **** *  None.
  38:Generated_Source\PSoC5/I2CS.c **** *
  39:Generated_Source\PSoC5/I2CS.c **** * Return:
  40:Generated_Source\PSoC5/I2CS.c **** *  None.
  41:Generated_Source\PSoC5/I2CS.c **** *
  42:Generated_Source\PSoC5/I2CS.c **** * Global variables:
  43:Generated_Source\PSoC5/I2CS.c **** *  None.
  44:Generated_Source\PSoC5/I2CS.c **** *
  45:Generated_Source\PSoC5/I2CS.c **** * Reentrant:
  46:Generated_Source\PSoC5/I2CS.c **** *  No.
  47:Generated_Source\PSoC5/I2CS.c **** *
  48:Generated_Source\PSoC5/I2CS.c **** *******************************************************************************/
  49:Generated_Source\PSoC5/I2CS.c **** void I2CS_Init(void) 
  50:Generated_Source\PSoC5/I2CS.c **** {
  27              		.loc 1 50 0
  28              		.cfi_startproc
  29              		@ args = 0, pretend = 0, frame = 0
  30              		@ frame_needed = 0, uses_anonymous_args = 0
  31 0000 38B5     		push	{r3, r4, r5, lr}
  32              		.cfi_def_cfa_offset 16
  33              		.cfi_offset 3, -16
  34              		.cfi_offset 4, -12
  35              		.cfi_offset 5, -8
  36              		.cfi_offset 14, -4
  51:Generated_Source\PSoC5/I2CS.c **** #if (I2CS_FF_IMPLEMENTED)
  52:Generated_Source\PSoC5/I2CS.c ****     /* Configure fixed function block */
  53:Generated_Source\PSoC5/I2CS.c ****     I2CS_CFG_REG  = I2CS_DEFAULT_CFG;
  37              		.loc 1 53 0
  38 0002 8123     		movs	r3, #129
  39 0004 124A     		ldr	r2, .L3
  40 0006 1370     		strb	r3, [r2]
  54:Generated_Source\PSoC5/I2CS.c ****     I2CS_XCFG_REG = I2CS_DEFAULT_XCFG;
  41              		.loc 1 54 0
  42 0008 0E3A     		subs	r2, r2, #14
  43 000a 1370     		strb	r3, [r2]
  55:Generated_Source\PSoC5/I2CS.c ****     I2CS_ADDR_REG = I2CS_DEFAULT_ADDR;
  44              		.loc 1 55 0
  45 000c 0825     		movs	r5, #8
  46 000e 114B     		ldr	r3, .L3+4
  47 0010 1D70     		strb	r5, [r3]
  56:Generated_Source\PSoC5/I2CS.c ****     I2CS_CLKDIV1_REG = LO8(I2CS_DEFAULT_DIVIDE_FACTOR);
  48              		.loc 1 56 0
  49 0012 0322     		movs	r2, #3
  50 0014 1133     		adds	r3, r3, #17
  51 0016 1A70     		strb	r2, [r3]
  57:Generated_Source\PSoC5/I2CS.c ****     I2CS_CLKDIV2_REG = HI8(I2CS_DEFAULT_DIVIDE_FACTOR);
  52              		.loc 1 57 0
  53 0018 0024     		movs	r4, #0
  54 001a 0133     		adds	r3, r3, #1
  55 001c 1C70     		strb	r4, [r3]
  58:Generated_Source\PSoC5/I2CS.c **** 
  59:Generated_Source\PSoC5/I2CS.c **** #else
ARM GAS  C:\Users\Anders\AppData\Local\Temp\ccut6fBP.s 			page 3


  60:Generated_Source\PSoC5/I2CS.c ****     uint8 intState;
  61:Generated_Source\PSoC5/I2CS.c **** 
  62:Generated_Source\PSoC5/I2CS.c ****     /* Configure control and interrupt sources */
  63:Generated_Source\PSoC5/I2CS.c ****     I2CS_CFG_REG      = I2CS_DEFAULT_CFG;
  64:Generated_Source\PSoC5/I2CS.c ****     I2CS_INT_MASK_REG = I2CS_DEFAULT_INT_MASK;
  65:Generated_Source\PSoC5/I2CS.c **** 
  66:Generated_Source\PSoC5/I2CS.c ****     /* Enable interrupt generation in status */
  67:Generated_Source\PSoC5/I2CS.c ****     intState = CyEnterCriticalSection();
  68:Generated_Source\PSoC5/I2CS.c ****     I2CS_INT_ENABLE_REG |= I2CS_INTR_ENABLE;
  69:Generated_Source\PSoC5/I2CS.c ****     CyExitCriticalSection(intState);
  70:Generated_Source\PSoC5/I2CS.c **** 
  71:Generated_Source\PSoC5/I2CS.c ****     /* Configure bit counter */
  72:Generated_Source\PSoC5/I2CS.c ****     #if (I2CS_MODE_SLAVE_ENABLED)
  73:Generated_Source\PSoC5/I2CS.c ****         I2CS_PERIOD_REG = I2CS_DEFAULT_PERIOD;
  74:Generated_Source\PSoC5/I2CS.c ****     #endif  /* (I2CS_MODE_SLAVE_ENABLED) */
  75:Generated_Source\PSoC5/I2CS.c **** 
  76:Generated_Source\PSoC5/I2CS.c ****     /* Configure clock generator */
  77:Generated_Source\PSoC5/I2CS.c ****     #if (I2CS_MODE_MASTER_ENABLED)
  78:Generated_Source\PSoC5/I2CS.c ****         I2CS_MCLK_PRD_REG = I2CS_DEFAULT_MCLK_PRD;
  79:Generated_Source\PSoC5/I2CS.c ****         I2CS_MCLK_CMP_REG = I2CS_DEFAULT_MCLK_CMP;
  80:Generated_Source\PSoC5/I2CS.c ****     #endif /* (I2CS_MODE_MASTER_ENABLED) */
  81:Generated_Source\PSoC5/I2CS.c **** #endif /* (I2CS_FF_IMPLEMENTED) */
  82:Generated_Source\PSoC5/I2CS.c **** 
  83:Generated_Source\PSoC5/I2CS.c **** #if (I2CS_TIMEOUT_ENABLED)
  84:Generated_Source\PSoC5/I2CS.c ****     I2CS_TimeoutInit();
  85:Generated_Source\PSoC5/I2CS.c **** #endif /* (I2CS_TIMEOUT_ENABLED) */
  86:Generated_Source\PSoC5/I2CS.c **** 
  87:Generated_Source\PSoC5/I2CS.c ****     /* Configure internal interrupt */
  88:Generated_Source\PSoC5/I2CS.c ****     CyIntDisable    (I2CS_ISR_NUMBER);
  56              		.loc 1 88 0
  57 001e 4FF40042 		mov	r2, #32768
  58 0022 0D4B     		ldr	r3, .L3+8
  59 0024 1A60     		str	r2, [r3]
  89:Generated_Source\PSoC5/I2CS.c ****     CyIntSetPriority(I2CS_ISR_NUMBER, I2CS_ISR_PRIORITY);
  60              		.loc 1 89 0
  61 0026 0F20     		movs	r0, #15
  62 0028 0721     		movs	r1, #7
  63 002a FFF7FEFF 		bl	CyIntSetPriority
  64              	.LVL0:
  90:Generated_Source\PSoC5/I2CS.c ****     #if (I2CS_INTERN_I2C_INTR_HANDLER)
  91:Generated_Source\PSoC5/I2CS.c ****         (void) CyIntSetVector(I2CS_ISR_NUMBER, &I2CS_ISR);
  65              		.loc 1 91 0
  66 002e 0F20     		movs	r0, #15
  67 0030 0A49     		ldr	r1, .L3+12
  68 0032 FFF7FEFF 		bl	CyIntSetVector
  69              	.LVL1:
  92:Generated_Source\PSoC5/I2CS.c ****     #endif /* (I2CS_INTERN_I2C_INTR_HANDLER) */
  93:Generated_Source\PSoC5/I2CS.c **** 
  94:Generated_Source\PSoC5/I2CS.c ****     /* Set FSM to default state */
  95:Generated_Source\PSoC5/I2CS.c ****     I2CS_state = I2CS_SM_IDLE;
  70              		.loc 1 95 0
  71 0036 1022     		movs	r2, #16
  72 0038 094B     		ldr	r3, .L3+16
  73 003a 1A70     		strb	r2, [r3]
  96:Generated_Source\PSoC5/I2CS.c **** 
  97:Generated_Source\PSoC5/I2CS.c **** #if (I2CS_MODE_SLAVE_ENABLED)
  98:Generated_Source\PSoC5/I2CS.c ****     /* Clear status and buffers index */
ARM GAS  C:\Users\Anders\AppData\Local\Temp\ccut6fBP.s 			page 4


  99:Generated_Source\PSoC5/I2CS.c ****     I2CS_slStatus = 0u;
  74              		.loc 1 99 0
  75 003c 094B     		ldr	r3, .L3+20
  76 003e 1C70     		strb	r4, [r3]
 100:Generated_Source\PSoC5/I2CS.c ****     I2CS_slRdBufIndex = 0u;
  77              		.loc 1 100 0
  78 0040 094B     		ldr	r3, .L3+24
  79 0042 1C70     		strb	r4, [r3]
 101:Generated_Source\PSoC5/I2CS.c ****     I2CS_slWrBufIndex = 0u;
  80              		.loc 1 101 0
  81 0044 094B     		ldr	r3, .L3+28
  82 0046 1C70     		strb	r4, [r3]
 102:Generated_Source\PSoC5/I2CS.c **** 
 103:Generated_Source\PSoC5/I2CS.c ****     /* Configure matched address */
 104:Generated_Source\PSoC5/I2CS.c ****     I2CS_SlaveSetAddress(I2CS_DEFAULT_ADDR);
  83              		.loc 1 104 0
  84 0048 2846     		mov	r0, r5
  85 004a FFF7FEFF 		bl	I2CS_SlaveSetAddress
  86              	.LVL2:
  87 004e 38BD     		pop	{r3, r4, r5, pc}
  88              	.L4:
  89              		.align	2
  90              	.L3:
  91 0050 D6490040 		.word	1073760726
  92 0054 CA490040 		.word	1073760714
  93 0058 80E100E0 		.word	-536813184
  94 005c 00000000 		.word	I2CS_ISR
  95 0060 00000000 		.word	I2CS_state
  96 0064 00000000 		.word	I2CS_slStatus
  97 0068 00000000 		.word	I2CS_slRdBufIndex
  98 006c 00000000 		.word	I2CS_slWrBufIndex
  99              		.cfi_endproc
 100              	.LFE0:
 101              		.size	I2CS_Init, .-I2CS_Init
 102              		.section	.text.I2CS_Enable,"ax",%progbits
 103              		.align	2
 104              		.global	I2CS_Enable
 105              		.thumb
 106              		.thumb_func
 107              		.type	I2CS_Enable, %function
 108              	I2CS_Enable:
 109              	.LFB1:
 105:Generated_Source\PSoC5/I2CS.c **** #endif /* (I2CS_MODE_SLAVE_ENABLED) */
 106:Generated_Source\PSoC5/I2CS.c **** 
 107:Generated_Source\PSoC5/I2CS.c **** #if (I2CS_MODE_MASTER_ENABLED)
 108:Generated_Source\PSoC5/I2CS.c ****     /* Clear status and buffers index */
 109:Generated_Source\PSoC5/I2CS.c ****     I2CS_mstrStatus = 0u;
 110:Generated_Source\PSoC5/I2CS.c ****     I2CS_mstrRdBufIndex = 0u;
 111:Generated_Source\PSoC5/I2CS.c ****     I2CS_mstrWrBufIndex = 0u;
 112:Generated_Source\PSoC5/I2CS.c **** #endif /* (I2CS_MODE_MASTER_ENABLED) */
 113:Generated_Source\PSoC5/I2CS.c **** }
 114:Generated_Source\PSoC5/I2CS.c **** 
 115:Generated_Source\PSoC5/I2CS.c **** 
 116:Generated_Source\PSoC5/I2CS.c **** /*******************************************************************************
 117:Generated_Source\PSoC5/I2CS.c **** * Function Name: I2CS_Enable
 118:Generated_Source\PSoC5/I2CS.c **** ********************************************************************************
 119:Generated_Source\PSoC5/I2CS.c **** *
ARM GAS  C:\Users\Anders\AppData\Local\Temp\ccut6fBP.s 			page 5


 120:Generated_Source\PSoC5/I2CS.c **** * Summary:
 121:Generated_Source\PSoC5/I2CS.c **** *  Enables I2C operations.
 122:Generated_Source\PSoC5/I2CS.c **** *
 123:Generated_Source\PSoC5/I2CS.c **** * Parameters:
 124:Generated_Source\PSoC5/I2CS.c **** *  None.
 125:Generated_Source\PSoC5/I2CS.c **** *
 126:Generated_Source\PSoC5/I2CS.c **** * Return:
 127:Generated_Source\PSoC5/I2CS.c **** *  None.
 128:Generated_Source\PSoC5/I2CS.c **** *
 129:Generated_Source\PSoC5/I2CS.c **** * Global variables:
 130:Generated_Source\PSoC5/I2CS.c **** *  None.
 131:Generated_Source\PSoC5/I2CS.c **** *
 132:Generated_Source\PSoC5/I2CS.c **** *******************************************************************************/
 133:Generated_Source\PSoC5/I2CS.c **** void I2CS_Enable(void) 
 134:Generated_Source\PSoC5/I2CS.c **** {
 110              		.loc 1 134 0
 111              		.cfi_startproc
 112              		@ args = 0, pretend = 0, frame = 0
 113              		@ frame_needed = 0, uses_anonymous_args = 0
 114 0000 08B5     		push	{r3, lr}
 115              		.cfi_def_cfa_offset 8
 116              		.cfi_offset 3, -8
 117              		.cfi_offset 14, -4
 135:Generated_Source\PSoC5/I2CS.c **** #if (I2CS_FF_IMPLEMENTED)
 136:Generated_Source\PSoC5/I2CS.c ****     uint8 intState;
 137:Generated_Source\PSoC5/I2CS.c **** 
 138:Generated_Source\PSoC5/I2CS.c ****     /* Enable power to block */
 139:Generated_Source\PSoC5/I2CS.c ****     intState = CyEnterCriticalSection();
 118              		.loc 1 139 0
 119 0002 FFF7FEFF 		bl	CyEnterCriticalSection
 120              	.LVL3:
 140:Generated_Source\PSoC5/I2CS.c ****     I2CS_ACT_PWRMGR_REG  |= I2CS_ACT_PWR_EN;
 121              		.loc 1 140 0
 122 0006 064A     		ldr	r2, .L7
 123 0008 1378     		ldrb	r3, [r2]	@ zero_extendqisi2
 124 000a 43F00403 		orr	r3, r3, #4
 125 000e 1370     		strb	r3, [r2]
 141:Generated_Source\PSoC5/I2CS.c ****     I2CS_STBY_PWRMGR_REG |= I2CS_STBY_PWR_EN;
 126              		.loc 1 141 0
 127 0010 1032     		adds	r2, r2, #16
 128 0012 1378     		ldrb	r3, [r2]	@ zero_extendqisi2
 129 0014 43F00403 		orr	r3, r3, #4
 130 0018 1370     		strb	r3, [r2]
 142:Generated_Source\PSoC5/I2CS.c ****     CyExitCriticalSection(intState);
 131              		.loc 1 142 0
 132 001a FFF7FEFF 		bl	CyExitCriticalSection
 133              	.LVL4:
 134 001e 08BD     		pop	{r3, pc}
 135              	.L8:
 136              		.align	2
 137              	.L7:
 138 0020 A5430040 		.word	1073759141
 139              		.cfi_endproc
 140              	.LFE1:
 141              		.size	I2CS_Enable, .-I2CS_Enable
 142              		.section	.text.I2CS_Start,"ax",%progbits
 143              		.align	2
ARM GAS  C:\Users\Anders\AppData\Local\Temp\ccut6fBP.s 			page 6


 144              		.global	I2CS_Start
 145              		.thumb
 146              		.thumb_func
 147              		.type	I2CS_Start, %function
 148              	I2CS_Start:
 149              	.LFB2:
 143:Generated_Source\PSoC5/I2CS.c **** #else
 144:Generated_Source\PSoC5/I2CS.c ****     #if (I2CS_MODE_SLAVE_ENABLED)
 145:Generated_Source\PSoC5/I2CS.c ****         /* Enable bit counter */
 146:Generated_Source\PSoC5/I2CS.c ****         uint8 intState = CyEnterCriticalSection();
 147:Generated_Source\PSoC5/I2CS.c ****         I2CS_COUNTER_AUX_CTL_REG |= I2CS_CNT7_ENABLE;
 148:Generated_Source\PSoC5/I2CS.c ****         CyExitCriticalSection(intState);
 149:Generated_Source\PSoC5/I2CS.c ****     #endif /* (I2CS_MODE_SLAVE_ENABLED) */
 150:Generated_Source\PSoC5/I2CS.c **** 
 151:Generated_Source\PSoC5/I2CS.c ****     /* Enable slave or master bits */
 152:Generated_Source\PSoC5/I2CS.c ****     I2CS_CFG_REG |= I2CS_ENABLE_MS;
 153:Generated_Source\PSoC5/I2CS.c **** #endif /* (I2CS_FF_IMPLEMENTED) */
 154:Generated_Source\PSoC5/I2CS.c **** 
 155:Generated_Source\PSoC5/I2CS.c **** #if (I2CS_TIMEOUT_ENABLED)
 156:Generated_Source\PSoC5/I2CS.c ****     I2CS_TimeoutEnable();
 157:Generated_Source\PSoC5/I2CS.c **** #endif /* (I2CS_TIMEOUT_ENABLED) */
 158:Generated_Source\PSoC5/I2CS.c **** }
 159:Generated_Source\PSoC5/I2CS.c **** 
 160:Generated_Source\PSoC5/I2CS.c **** 
 161:Generated_Source\PSoC5/I2CS.c **** /*******************************************************************************
 162:Generated_Source\PSoC5/I2CS.c **** * Function Name: I2CS_Start
 163:Generated_Source\PSoC5/I2CS.c **** ********************************************************************************
 164:Generated_Source\PSoC5/I2CS.c **** *
 165:Generated_Source\PSoC5/I2CS.c **** * Summary:
 166:Generated_Source\PSoC5/I2CS.c **** *  Starts the I2C hardware. Enables Active mode power template bits or clock
 167:Generated_Source\PSoC5/I2CS.c **** *  gating as appropriate. It is required to be executed before I2C bus
 168:Generated_Source\PSoC5/I2CS.c **** *  operation.
 169:Generated_Source\PSoC5/I2CS.c **** *
 170:Generated_Source\PSoC5/I2CS.c **** * Parameters:
 171:Generated_Source\PSoC5/I2CS.c **** *  None.
 172:Generated_Source\PSoC5/I2CS.c **** *
 173:Generated_Source\PSoC5/I2CS.c **** * Return:
 174:Generated_Source\PSoC5/I2CS.c **** *  None.
 175:Generated_Source\PSoC5/I2CS.c **** *
 176:Generated_Source\PSoC5/I2CS.c **** * Side Effects:
 177:Generated_Source\PSoC5/I2CS.c **** *  This component automatically enables its interrupt.  If I2C is enabled !
 178:Generated_Source\PSoC5/I2CS.c **** *  without the interrupt enabled, it can lock up the I2C bus.
 179:Generated_Source\PSoC5/I2CS.c **** *
 180:Generated_Source\PSoC5/I2CS.c **** * Global variables:
 181:Generated_Source\PSoC5/I2CS.c **** *  I2CS_initVar - This variable is used to check the initial
 182:Generated_Source\PSoC5/I2CS.c **** *                             configuration, modified on the first
 183:Generated_Source\PSoC5/I2CS.c **** *                             function call.
 184:Generated_Source\PSoC5/I2CS.c **** *
 185:Generated_Source\PSoC5/I2CS.c **** * Reentrant:
 186:Generated_Source\PSoC5/I2CS.c **** *  No.
 187:Generated_Source\PSoC5/I2CS.c **** *
 188:Generated_Source\PSoC5/I2CS.c **** *******************************************************************************/
 189:Generated_Source\PSoC5/I2CS.c **** void I2CS_Start(void) 
 190:Generated_Source\PSoC5/I2CS.c **** {
 150              		.loc 1 190 0
 151              		.cfi_startproc
 152              		@ args = 0, pretend = 0, frame = 0
ARM GAS  C:\Users\Anders\AppData\Local\Temp\ccut6fBP.s 			page 7


 153              		@ frame_needed = 0, uses_anonymous_args = 0
 154 0000 08B5     		push	{r3, lr}
 155              		.cfi_def_cfa_offset 8
 156              		.cfi_offset 3, -8
 157              		.cfi_offset 14, -4
 191:Generated_Source\PSoC5/I2CS.c ****     if (0u == I2CS_initVar)
 158              		.loc 1 191 0
 159 0002 074B     		ldr	r3, .L12
 160 0004 1B78     		ldrb	r3, [r3]	@ zero_extendqisi2
 161 0006 23B9     		cbnz	r3, .L10
 192:Generated_Source\PSoC5/I2CS.c ****     {
 193:Generated_Source\PSoC5/I2CS.c ****         I2CS_Init();
 162              		.loc 1 193 0
 163 0008 FFF7FEFF 		bl	I2CS_Init
 164              	.LVL5:
 194:Generated_Source\PSoC5/I2CS.c ****         I2CS_initVar = 1u; /* Component initialized */
 165              		.loc 1 194 0
 166 000c 0122     		movs	r2, #1
 167 000e 044B     		ldr	r3, .L12
 168 0010 1A70     		strb	r2, [r3]
 169              	.L10:
 195:Generated_Source\PSoC5/I2CS.c ****     }
 196:Generated_Source\PSoC5/I2CS.c **** 
 197:Generated_Source\PSoC5/I2CS.c ****     I2CS_Enable();
 170              		.loc 1 197 0
 171 0012 FFF7FEFF 		bl	I2CS_Enable
 172              	.LVL6:
 198:Generated_Source\PSoC5/I2CS.c ****     I2CS_EnableInt();
 173              		.loc 1 198 0
 174 0016 4FF40042 		mov	r2, #32768
 175 001a 024B     		ldr	r3, .L12+4
 176 001c 1A60     		str	r2, [r3]
 177 001e 08BD     		pop	{r3, pc}
 178              	.L13:
 179              		.align	2
 180              	.L12:
 181 0020 00000000 		.word	.LANCHOR0
 182 0024 00E100E0 		.word	-536813312
 183              		.cfi_endproc
 184              	.LFE2:
 185              		.size	I2CS_Start, .-I2CS_Start
 186              		.section	.text.I2CS_Stop,"ax",%progbits
 187              		.align	2
 188              		.global	I2CS_Stop
 189              		.thumb
 190              		.thumb_func
 191              		.type	I2CS_Stop, %function
 192              	I2CS_Stop:
 193              	.LFB3:
 199:Generated_Source\PSoC5/I2CS.c **** }
 200:Generated_Source\PSoC5/I2CS.c **** 
 201:Generated_Source\PSoC5/I2CS.c **** 
 202:Generated_Source\PSoC5/I2CS.c **** /*******************************************************************************
 203:Generated_Source\PSoC5/I2CS.c **** * Function Name: I2CS_Stop
 204:Generated_Source\PSoC5/I2CS.c **** ********************************************************************************
 205:Generated_Source\PSoC5/I2CS.c **** *
 206:Generated_Source\PSoC5/I2CS.c **** * Summary:
ARM GAS  C:\Users\Anders\AppData\Local\Temp\ccut6fBP.s 			page 8


 207:Generated_Source\PSoC5/I2CS.c **** *  Disables I2C hardware and disables I2C interrupt. Disables Active mode power
 208:Generated_Source\PSoC5/I2CS.c **** *  template bits or clock gating as appropriate.
 209:Generated_Source\PSoC5/I2CS.c **** *
 210:Generated_Source\PSoC5/I2CS.c **** * Parameters:
 211:Generated_Source\PSoC5/I2CS.c **** *  None.
 212:Generated_Source\PSoC5/I2CS.c **** *
 213:Generated_Source\PSoC5/I2CS.c **** * Return:
 214:Generated_Source\PSoC5/I2CS.c **** *  None.
 215:Generated_Source\PSoC5/I2CS.c **** *
 216:Generated_Source\PSoC5/I2CS.c **** *******************************************************************************/
 217:Generated_Source\PSoC5/I2CS.c **** void I2CS_Stop(void) 
 218:Generated_Source\PSoC5/I2CS.c **** {
 194              		.loc 1 218 0
 195              		.cfi_startproc
 196              		@ args = 0, pretend = 0, frame = 0
 197              		@ frame_needed = 0, uses_anonymous_args = 0
 198 0000 2DE9F843 		push	{r3, r4, r5, r6, r7, r8, r9, lr}
 199              		.cfi_def_cfa_offset 32
 200              		.cfi_offset 3, -32
 201              		.cfi_offset 4, -28
 202              		.cfi_offset 5, -24
 203              		.cfi_offset 6, -20
 204              		.cfi_offset 7, -16
 205              		.cfi_offset 8, -12
 206              		.cfi_offset 9, -8
 207              		.cfi_offset 14, -4
 219:Generated_Source\PSoC5/I2CS.c ****     I2CS_DisableInt();
 208              		.loc 1 219 0
 209 0004 4FF40049 		mov	r9, #32768
 210 0008 244B     		ldr	r3, .L16
 211 000a C3F80090 		str	r9, [r3]
 212              	.LBB2:
 220:Generated_Source\PSoC5/I2CS.c **** 
 221:Generated_Source\PSoC5/I2CS.c **** #if (I2CS_TIMEOUT_ENABLED)
 222:Generated_Source\PSoC5/I2CS.c ****     I2CS_TimeoutStop();
 223:Generated_Source\PSoC5/I2CS.c **** #endif  /* End (I2CS_TIMEOUT_ENABLED) */
 224:Generated_Source\PSoC5/I2CS.c **** 
 225:Generated_Source\PSoC5/I2CS.c **** #if (I2CS_FF_IMPLEMENTED)
 226:Generated_Source\PSoC5/I2CS.c ****     {
 227:Generated_Source\PSoC5/I2CS.c ****         uint8 intState;
 228:Generated_Source\PSoC5/I2CS.c ****         uint16 blockResetCycles;
 229:Generated_Source\PSoC5/I2CS.c **** 
 230:Generated_Source\PSoC5/I2CS.c ****         /* Store registers effected by block disable */
 231:Generated_Source\PSoC5/I2CS.c ****         I2CS_backup.addr    = I2CS_ADDR_REG;
 213              		.loc 1 231 0
 214 000e DFF8B080 		ldr	r8, .L16+36
 215 0012 98F80030 		ldrb	r3, [r8]	@ zero_extendqisi2
 216 0016 224C     		ldr	r4, .L16+4
 217 0018 E370     		strb	r3, [r4, #3]
 232:Generated_Source\PSoC5/I2CS.c ****         I2CS_backup.clkDiv1 = I2CS_CLKDIV1_REG;
 218              		.loc 1 232 0
 219 001a 224F     		ldr	r7, .L16+8
 220 001c 3B78     		ldrb	r3, [r7]	@ zero_extendqisi2
 221 001e 2371     		strb	r3, [r4, #4]
 233:Generated_Source\PSoC5/I2CS.c ****         I2CS_backup.clkDiv2 = I2CS_CLKDIV2_REG;
 222              		.loc 1 233 0
 223 0020 214E     		ldr	r6, .L16+12
ARM GAS  C:\Users\Anders\AppData\Local\Temp\ccut6fBP.s 			page 9


 224 0022 3378     		ldrb	r3, [r6]	@ zero_extendqisi2
 225 0024 6371     		strb	r3, [r4, #5]
 234:Generated_Source\PSoC5/I2CS.c **** 
 235:Generated_Source\PSoC5/I2CS.c ****         /* Calculate number of cycles to reset block */
 236:Generated_Source\PSoC5/I2CS.c ****         blockResetCycles = ((uint16) ((uint16) I2CS_CLKDIV2_REG << 8u) | I2CS_CLKDIV1_REG) + 1u;
 226              		.loc 1 236 0
 227 0026 3078     		ldrb	r0, [r6]	@ zero_extendqisi2
 228 0028 3B78     		ldrb	r3, [r7]	@ zero_extendqisi2
 229 002a 43EA0020 		orr	r0, r3, r0, lsl #8
 230 002e 0130     		adds	r0, r0, #1
 231              	.LVL7:
 237:Generated_Source\PSoC5/I2CS.c **** 
 238:Generated_Source\PSoC5/I2CS.c ****         /* Disable block */
 239:Generated_Source\PSoC5/I2CS.c ****         I2CS_CFG_REG &= (uint8) ~I2CS_CFG_EN_SLAVE;
 232              		.loc 1 239 0
 233 0030 1E4D     		ldr	r5, .L16+16
 234 0032 2B78     		ldrb	r3, [r5]	@ zero_extendqisi2
 235 0034 03F0FE03 		and	r3, r3, #254
 236 0038 2B70     		strb	r3, [r5]
 240:Generated_Source\PSoC5/I2CS.c ****         /* Wait for block reset before disable power */
 241:Generated_Source\PSoC5/I2CS.c ****         CyDelayCycles((uint32) blockResetCycles);
 237              		.loc 1 241 0
 238 003a 80B2     		uxth	r0, r0
 239 003c FFF7FEFF 		bl	CyDelayCycles
 240              	.LVL8:
 242:Generated_Source\PSoC5/I2CS.c **** 
 243:Generated_Source\PSoC5/I2CS.c ****         /* Disable power to block */
 244:Generated_Source\PSoC5/I2CS.c ****         intState = CyEnterCriticalSection();
 241              		.loc 1 244 0
 242 0040 FFF7FEFF 		bl	CyEnterCriticalSection
 243              	.LVL9:
 245:Generated_Source\PSoC5/I2CS.c ****         I2CS_ACT_PWRMGR_REG  &= (uint8) ~I2CS_ACT_PWR_EN;
 244              		.loc 1 245 0
 245 0044 1A4A     		ldr	r2, .L16+20
 246 0046 1378     		ldrb	r3, [r2]	@ zero_extendqisi2
 247 0048 03F0FB03 		and	r3, r3, #251
 248 004c 1370     		strb	r3, [r2]
 246:Generated_Source\PSoC5/I2CS.c ****         I2CS_STBY_PWRMGR_REG &= (uint8) ~I2CS_STBY_PWR_EN;
 249              		.loc 1 246 0
 250 004e 1032     		adds	r2, r2, #16
 251 0050 1378     		ldrb	r3, [r2]	@ zero_extendqisi2
 252 0052 03F0FB03 		and	r3, r3, #251
 253 0056 1370     		strb	r3, [r2]
 247:Generated_Source\PSoC5/I2CS.c ****         CyExitCriticalSection(intState);
 254              		.loc 1 247 0
 255 0058 FFF7FEFF 		bl	CyExitCriticalSection
 256              	.LVL10:
 248:Generated_Source\PSoC5/I2CS.c **** 
 249:Generated_Source\PSoC5/I2CS.c ****         /* Enable block */
 250:Generated_Source\PSoC5/I2CS.c ****         I2CS_CFG_REG |= (uint8) I2CS_ENABLE_MS;
 257              		.loc 1 250 0
 258 005c 2B78     		ldrb	r3, [r5]	@ zero_extendqisi2
 259 005e 43F00103 		orr	r3, r3, #1
 260 0062 2B70     		strb	r3, [r5]
 251:Generated_Source\PSoC5/I2CS.c **** 
 252:Generated_Source\PSoC5/I2CS.c ****         /* Restore registers effected by block disable. Ticket ID#198004 */
 253:Generated_Source\PSoC5/I2CS.c ****         I2CS_ADDR_REG    = I2CS_backup.addr;
ARM GAS  C:\Users\Anders\AppData\Local\Temp\ccut6fBP.s 			page 10


 261              		.loc 1 253 0
 262 0064 E378     		ldrb	r3, [r4, #3]	@ zero_extendqisi2
 263 0066 88F80030 		strb	r3, [r8]
 254:Generated_Source\PSoC5/I2CS.c ****         I2CS_ADDR_REG    = I2CS_backup.addr;
 264              		.loc 1 254 0
 265 006a E378     		ldrb	r3, [r4, #3]	@ zero_extendqisi2
 266 006c 88F80030 		strb	r3, [r8]
 255:Generated_Source\PSoC5/I2CS.c ****         I2CS_CLKDIV1_REG = I2CS_backup.clkDiv1;
 267              		.loc 1 255 0
 268 0070 2379     		ldrb	r3, [r4, #4]	@ zero_extendqisi2
 269 0072 3B70     		strb	r3, [r7]
 256:Generated_Source\PSoC5/I2CS.c ****         I2CS_CLKDIV2_REG = I2CS_backup.clkDiv2;
 270              		.loc 1 256 0
 271 0074 6379     		ldrb	r3, [r4, #5]	@ zero_extendqisi2
 272 0076 3370     		strb	r3, [r6]
 273              	.LBE2:
 257:Generated_Source\PSoC5/I2CS.c ****     }
 258:Generated_Source\PSoC5/I2CS.c **** #else
 259:Generated_Source\PSoC5/I2CS.c **** 
 260:Generated_Source\PSoC5/I2CS.c ****     /* Disable slave or master bits */
 261:Generated_Source\PSoC5/I2CS.c ****     I2CS_CFG_REG &= (uint8) ~I2CS_ENABLE_MS;
 262:Generated_Source\PSoC5/I2CS.c **** 
 263:Generated_Source\PSoC5/I2CS.c **** #if (I2CS_MODE_SLAVE_ENABLED)
 264:Generated_Source\PSoC5/I2CS.c ****     {
 265:Generated_Source\PSoC5/I2CS.c ****         /* Disable bit counter */
 266:Generated_Source\PSoC5/I2CS.c ****         uint8 intState = CyEnterCriticalSection();
 267:Generated_Source\PSoC5/I2CS.c ****         I2CS_COUNTER_AUX_CTL_REG &= (uint8) ~I2CS_CNT7_ENABLE;
 268:Generated_Source\PSoC5/I2CS.c ****         CyExitCriticalSection(intState);
 269:Generated_Source\PSoC5/I2CS.c ****     }
 270:Generated_Source\PSoC5/I2CS.c **** #endif /* (I2CS_MODE_SLAVE_ENABLED) */
 271:Generated_Source\PSoC5/I2CS.c **** 
 272:Generated_Source\PSoC5/I2CS.c ****     /* Clear interrupt source register */
 273:Generated_Source\PSoC5/I2CS.c ****     (void) I2CS_CSR_REG;
 274:Generated_Source\PSoC5/I2CS.c **** #endif /* (I2CS_FF_IMPLEMENTED) */
 275:Generated_Source\PSoC5/I2CS.c **** 
 276:Generated_Source\PSoC5/I2CS.c ****     /* Disable interrupt on stop (enabled by write transaction) */
 277:Generated_Source\PSoC5/I2CS.c ****     I2CS_DISABLE_INT_ON_STOP;
 274              		.loc 1 277 0
 275 0078 2B78     		ldrb	r3, [r5]	@ zero_extendqisi2
 276 007a 03F0EF03 		and	r3, r3, #239
 277 007e 2B70     		strb	r3, [r5]
 278:Generated_Source\PSoC5/I2CS.c ****     I2CS_ClearPendingInt();
 278              		.loc 1 278 0
 279 0080 0C4B     		ldr	r3, .L16+24
 280 0082 C3F80090 		str	r9, [r3]
 279:Generated_Source\PSoC5/I2CS.c **** 
 280:Generated_Source\PSoC5/I2CS.c ****     /* Reset FSM to default state */
 281:Generated_Source\PSoC5/I2CS.c ****     I2CS_state = I2CS_SM_IDLE;
 281              		.loc 1 281 0
 282 0086 1022     		movs	r2, #16
 283 0088 0B4B     		ldr	r3, .L16+28
 284 008a 1A70     		strb	r2, [r3]
 282:Generated_Source\PSoC5/I2CS.c **** 
 283:Generated_Source\PSoC5/I2CS.c ****     /* Clear busy statuses */
 284:Generated_Source\PSoC5/I2CS.c **** #if (I2CS_MODE_SLAVE_ENABLED)
 285:Generated_Source\PSoC5/I2CS.c ****     I2CS_slStatus &= (uint8) ~(I2CS_SSTAT_RD_BUSY | I2CS_SSTAT_WR_BUSY);
 285              		.loc 1 285 0
ARM GAS  C:\Users\Anders\AppData\Local\Temp\ccut6fBP.s 			page 11


 286 008c 0B4A     		ldr	r2, .L16+32
 287 008e 1378     		ldrb	r3, [r2]	@ zero_extendqisi2
 288 0090 03F0DD03 		and	r3, r3, #221
 289 0094 1370     		strb	r3, [r2]
 290 0096 BDE8F883 		pop	{r3, r4, r5, r6, r7, r8, r9, pc}
 291              	.L17:
 292 009a 00BF     		.align	2
 293              	.L16:
 294 009c 80E100E0 		.word	-536813184
 295 00a0 00000000 		.word	I2CS_backup
 296 00a4 DB490040 		.word	1073760731
 297 00a8 DC490040 		.word	1073760732
 298 00ac D6490040 		.word	1073760726
 299 00b0 A5430040 		.word	1073759141
 300 00b4 80E200E0 		.word	-536812928
 301 00b8 00000000 		.word	I2CS_state
 302 00bc 00000000 		.word	I2CS_slStatus
 303 00c0 CA490040 		.word	1073760714
 304              		.cfi_endproc
 305              	.LFE3:
 306              		.size	I2CS_Stop, .-I2CS_Stop
 307              		.comm	I2CS_state,1,1
 308              		.global	I2CS_initVar
 309              		.bss
 310              		.set	.LANCHOR0,. + 0
 311              		.type	I2CS_initVar, %object
 312              		.size	I2CS_initVar, 1
 313              	I2CS_initVar:
 314 0000 00       		.space	1
 315              		.text
 316              	.Letext0:
 317              		.file 2 "Generated_Source\\PSoC5\\cytypes.h"
 318              		.file 3 "Generated_Source\\PSoC5\\I2CS.h"
 319              		.file 4 "Generated_Source\\PSoC5\\I2CS_PVT.h"
 320              		.file 5 "Generated_Source\\PSoC5\\CyLib.h"