ARM GAS  C:\Users\Anders\AppData\Local\Temp\ccAS6RzH.s 			page 1


   1              		.cpu cortex-m0
   2              		.fpu softvfp
   3              		.eabi_attribute 20, 1
   4              		.eabi_attribute 21, 1
   5              		.eabi_attribute 23, 3
   6              		.eabi_attribute 24, 1
   7              		.eabi_attribute 25, 1
   8              		.eabi_attribute 26, 1
   9              		.eabi_attribute 30, 6
  10              		.eabi_attribute 34, 0
  11              		.eabi_attribute 18, 4
  12              		.code	16
  13              		.file	"main.c"
  14              		.text
  15              	.Ltext0:
  16              		.cfi_sections	.debug_frame
  17              		.global	i2cReadBuffer
  18              		.data
  19              		.align	2
  20              		.type	i2cReadBuffer, %object
  21              		.size	i2cReadBuffer, 4
  22              	i2cReadBuffer:
  23 0000 01       		.byte	1
  24 0001 FF       		.byte	-1
  25 0002 17       		.byte	23
  26 0003 00       		.space	1
  27              		.comm	i2cWriteBuffer,4,4
  28              		.section	.text.main,"ax",%progbits
  29              		.align	2
  30              		.global	main
  31              		.code	16
  32              		.thumb_func
  33              		.type	main, %function
  34              	main:
  35              	.LFB34:
  36              		.file 1 ".\\main.c"
   1:.\main.c      **** /*******************************************************************************
   2:.\main.c      **** * File Name: main.c
   3:.\main.c      **** *
   4:.\main.c      **** * Version: 1.20
   5:.\main.c      **** *
   6:.\main.c      **** * Description:
   7:.\main.c      **** *  This example project demonstrates the basic operation of the I2C slave
   8:.\main.c      **** *  (SCB mode) component. The I2C slave accepts a packet with a command from
   9:.\main.c      **** *  the I2C master to control the RGB LED color. The I2C slave updates its
  10:.\main.c      **** *  buffer with a status packet in response to the accepted command.
  11:.\main.c      **** *  For more information refer to the example project datasheet.
  12:.\main.c      **** *
  13:.\main.c      **** ********************************************************************************
  14:.\main.c      **** * Copyright 2014-2015, Cypress Semiconductor Corporation. All rights reserved.
  15:.\main.c      **** * This software is owned by Cypress Semiconductor Corporation and is protected
  16:.\main.c      **** * by and subject to worldwide patent and copyright laws and treaties.
  17:.\main.c      **** * Therefore, you may use this software only as provided in the license agreement
  18:.\main.c      **** * accompanying the software package from which you obtained this software.
  19:.\main.c      **** * CYPRESS AND ITS SUPPLIERS MAKE NO WARRANTY OF ANY KIND, EXPRESS OR IMPLIED,
  20:.\main.c      **** * WITH REGARD TO THIS SOFTWARE, INCLUDING, BUT NOT LIMITED TO, NONINFRINGEMENT,
  21:.\main.c      **** * IMPLIED WARRANTIES OF MERCHANTABILITY AND FITNESS FOR A PARTICULAR PURPOSE.
ARM GAS  C:\Users\Anders\AppData\Local\Temp\ccAS6RzH.s 			page 2


  22:.\main.c      **** *******************************************************************************/
  23:.\main.c      **** 
  24:.\main.c      **** #include <main.h>
  25:.\main.c      **** 
  26:.\main.c      **** /* I2C slave read and write buffers */
  27:.\main.c      **** uint8 i2cReadBuffer [BUFFER_SIZE] = {PACKET_SOP, STS_CMD_FAIL, PACKET_EOP};
  28:.\main.c      **** uint8 i2cWriteBuffer[BUFFER_SIZE];
  29:.\main.c      **** 
  30:.\main.c      **** 
  31:.\main.c      **** 
  32:.\main.c      **** /*******************************************************************************
  33:.\main.c      **** * Function Name: main
  34:.\main.c      **** ********************************************************************************
  35:.\main.c      **** * Summary:
  36:.\main.c      **** *  Main function performs following actions:
  37:.\main.c      **** *   1. Turns off status RGB LED
  38:.\main.c      **** *   2. Sets up I2C slave write and read buffers.
  39:.\main.c      **** *   3. Starts I2C slave (SCB mode) component.
  40:.\main.c      **** *   4. Enables global interrupts.
  41:.\main.c      **** *   5. Waits for command from the I2C master to control the RGB LED.
  42:.\main.c      **** *
  43:.\main.c      **** * Parameters:
  44:.\main.c      **** *  None
  45:.\main.c      **** *
  46:.\main.c      **** * Return:
  47:.\main.c      **** *  None
  48:.\main.c      **** *
  49:.\main.c      **** *******************************************************************************/
  50:.\main.c      **** int main()
  51:.\main.c      **** {
  37              		.loc 1 51 0
  38              		.cfi_startproc
  39 0000 90B5     		push	{r4, r7, lr}
  40              		.cfi_def_cfa_offset 12
  41              		.cfi_offset 4, -12
  42              		.cfi_offset 7, -8
  43              		.cfi_offset 14, -4
  44 0002 83B0     		sub	sp, sp, #12
  45              		.cfi_def_cfa_offset 24
  46 0004 00AF     		add	r7, sp, #0
  47              		.cfi_def_cfa_register 7
  52:.\main.c      ****     uint8 status = STS_CMD_FAIL;
  48              		.loc 1 52 0
  49 0006 FB1D     		add	r3, r7, #7
  50 0008 FF22     		mov	r2, #255
  51 000a 1A70     		strb	r2, [r3]
  53:.\main.c      **** 
  54:.\main.c      ****     PWM_2_Start();
  52              		.loc 1 54 0
  53 000c FFF7FEFF 		bl	PWM_2_Start
  55:.\main.c      **** 
  56:.\main.c      ****     /* Start I2C slave (SCB mode) */
  57:.\main.c      ****     I2CS_I2CSlaveInitReadBuf (i2cReadBuffer,  BUFFER_SIZE);
  54              		.loc 1 57 0
  55 0010 204B     		ldr	r3, .L6
  56 0012 181C     		mov	r0, r3
  57 0014 0421     		mov	r1, #4
ARM GAS  C:\Users\Anders\AppData\Local\Temp\ccAS6RzH.s 			page 3


  58 0016 FFF7FEFF 		bl	I2CS_I2CSlaveInitReadBuf
  58:.\main.c      ****     I2CS_I2CSlaveInitWriteBuf(i2cWriteBuffer, BUFFER_SIZE);
  59              		.loc 1 58 0
  60 001a 1F4B     		ldr	r3, .L6+4
  61 001c 181C     		mov	r0, r3
  62 001e 0421     		mov	r1, #4
  63 0020 FFF7FEFF 		bl	I2CS_I2CSlaveInitWriteBuf
  59:.\main.c      ****     I2CS_Start();
  64              		.loc 1 59 0
  65 0024 FFF7FEFF 		bl	I2CS_Start
  60:.\main.c      **** 
  61:.\main.c      ****     CyGlobalIntEnable;
  66              		.loc 1 61 0
  67              	@ 61 ".\main.c" 1
  68 0028 62B6     		CPSIE   i
  69              	@ 0 "" 2
  70              		.code	16
  71              	.L5:
  62:.\main.c      **** 
  63:.\main.c      ****     /***************************************************************************
  64:.\main.c      ****     * Main polling loop
  65:.\main.c      ****     ***************************************************************************/
  66:.\main.c      ****     for (;;)
  67:.\main.c      ****     {
  68:.\main.c      ****         /* Write complete: parse command packet */
  69:.\main.c      ****         if (0u != (I2CS_I2CSlaveStatus() & I2CS_I2C_SSTAT_WR_CMPLT))
  72              		.loc 1 69 0
  73 002a FFF7FEFF 		bl	I2CS_I2CSlaveStatus
  74 002e 021C     		mov	r2, r0
  75 0030 1023     		mov	r3, #16
  76 0032 1340     		and	r3, r2
  77 0034 23D0     		beq	.L2
  70:.\main.c      ****         {
  71:.\main.c      ****             /* Check packet length */
  72:.\main.c      ****             if (PACKET_SIZE == I2CS_I2CSlaveGetWriteBufSize())
  78              		.loc 1 72 0
  79 0036 FFF7FEFF 		bl	I2CS_I2CSlaveGetWriteBufSize
  80 003a 031E     		sub	r3, r0, #0
  81 003c 042B     		cmp	r3, #4
  82 003e 13D1     		bne	.L3
  73:.\main.c      ****             {
  74:.\main.c      ****                 /* Check start and end of packet markers */
  75:.\main.c      ****                 if ((i2cWriteBuffer[PACKET_SOP_POS] == PACKET_SOP) &&
  83              		.loc 1 75 0
  84 0040 154B     		ldr	r3, .L6+4
  85 0042 1B78     		ldrb	r3, [r3]
  86 0044 012B     		cmp	r3, #1
  87 0046 0FD1     		bne	.L3
  76:.\main.c      ****                     (i2cWriteBuffer[PACKET_EOP_POS] == PACKET_EOP))
  88              		.loc 1 76 0 discriminator 1
  89 0048 134B     		ldr	r3, .L6+4
  90 004a DB78     		ldrb	r3, [r3, #3]
  75:.\main.c      ****                     (i2cWriteBuffer[PACKET_EOP_POS] == PACKET_EOP))
  91              		.loc 1 75 0 discriminator 1
  92 004c 172B     		cmp	r3, #23
  93 004e 0BD1     		bne	.L3
  77:.\main.c      ****                 {
ARM GAS  C:\Users\Anders\AppData\Local\Temp\ccAS6RzH.s 			page 4


  78:.\main.c      ****                     status = ExecuteCommand(i2cWriteBuffer[PACKET_CMD_POS],i2cWriteBuffer[PACKET_CM
  94              		.loc 1 78 0
  95 0050 114B     		ldr	r3, .L6+4
  96 0052 5B78     		ldrb	r3, [r3, #1]
  97 0054 1A1C     		mov	r2, r3
  98 0056 104B     		ldr	r3, .L6+4
  99 0058 9B78     		ldrb	r3, [r3, #2]
 100 005a FC1D     		add	r4, r7, #7
 101 005c 101C     		mov	r0, r2
 102 005e 191C     		mov	r1, r3
 103 0060 FFF7FEFF 		bl	ExecuteCommand
 104 0064 031C     		mov	r3, r0
 105 0066 2370     		strb	r3, [r4]
 106              	.L3:
  79:.\main.c      ****                 }
  80:.\main.c      ****             }
  81:.\main.c      **** 
  82:.\main.c      ****             /* Clear slave write buffer and status */
  83:.\main.c      ****             I2CS_I2CSlaveClearWriteBuf();
 107              		.loc 1 83 0
 108 0068 FFF7FEFF 		bl	I2CS_I2CSlaveClearWriteBuf
  84:.\main.c      ****             (void) I2CS_I2CSlaveClearWriteStatus();
 109              		.loc 1 84 0
 110 006c FFF7FEFF 		bl	I2CS_I2CSlaveClearWriteStatus
  85:.\main.c      **** 
  86:.\main.c      ****             /* Update read buffer */
  87:.\main.c      ****             i2cReadBuffer[PACKET_STS_POS] = status;
 111              		.loc 1 87 0
 112 0070 084B     		ldr	r3, .L6
 113 0072 FA1D     		add	r2, r7, #7
 114 0074 1278     		ldrb	r2, [r2]
 115 0076 5A70     		strb	r2, [r3, #1]
  88:.\main.c      ****             status = STS_CMD_FAIL;
 116              		.loc 1 88 0
 117 0078 FB1D     		add	r3, r7, #7
 118 007a FF22     		mov	r2, #255
 119 007c 1A70     		strb	r2, [r3]
 120              	.L2:
  89:.\main.c      ****         }
  90:.\main.c      **** 
  91:.\main.c      ****         /* Read complete: expose buffer to master */
  92:.\main.c      ****         if (0u != (I2CS_I2CSlaveStatus() & I2CS_I2C_SSTAT_RD_CMPLT))
 121              		.loc 1 92 0
 122 007e FFF7FEFF 		bl	I2CS_I2CSlaveStatus
 123 0082 021C     		mov	r2, r0
 124 0084 0123     		mov	r3, #1
 125 0086 1340     		and	r3, r2
 126 0088 03D0     		beq	.L4
  93:.\main.c      ****         {
  94:.\main.c      ****             /* Clear slave read buffer and status */
  95:.\main.c      ****             I2CS_I2CSlaveClearReadBuf();
 127              		.loc 1 95 0
 128 008a FFF7FEFF 		bl	I2CS_I2CSlaveClearReadBuf
  96:.\main.c      ****             (void) I2CS_I2CSlaveClearReadStatus();
 129              		.loc 1 96 0
 130 008e FFF7FEFF 		bl	I2CS_I2CSlaveClearReadStatus
 131              	.L4:
ARM GAS  C:\Users\Anders\AppData\Local\Temp\ccAS6RzH.s 			page 5


  97:.\main.c      ****         }
  98:.\main.c      ****     }
 132              		.loc 1 98 0
 133 0092 CAE7     		b	.L5
 134              	.L7:
 135              		.align	2
 136              	.L6:
 137 0094 00000000 		.word	i2cReadBuffer
 138 0098 00000000 		.word	i2cWriteBuffer
 139              		.cfi_endproc
 140              	.LFE34:
 141              		.size	main, .-main
 142              		.section	.text.ExecuteCommand,"ax",%progbits
 143              		.align	2
 144              		.global	ExecuteCommand
 145              		.code	16
 146              		.thumb_func
 147              		.type	ExecuteCommand, %function
 148              	ExecuteCommand:
 149              	.LFB35:
  99:.\main.c      **** }
 100:.\main.c      **** 
 101:.\main.c      **** 
 102:.\main.c      **** /*******************************************************************************
 103:.\main.c      **** * Function Name: ExecuteCommand
 104:.\main.c      **** ********************************************************************************
 105:.\main.c      **** * Summary:
 106:.\main.c      **** *  Executes received command to control the LED color and returns status.
 107:.\main.c      **** *  If the command is unknown, the LED color is not changed.
 108:.\main.c      **** *
 109:.\main.c      **** * Parameters:
 110:.\main.c      **** *  cmd: command to execute. Available commands:
 111:.\main.c      **** *   - CMD_SET_RED:   set red color of the LED.
 112:.\main.c      **** *   - CMD_SET_GREEN: set green color of the LED.
 113:.\main.c      **** *   - CMD_SET_BLUE:  set blue color of the LED.
 114:.\main.c      **** *   - CMD_SET_OFF:   turn off the LED.
 115:.\main.c      **** *
 116:.\main.c      **** * Return:
 117:.\main.c      **** *  Returns status of command execution. There are two statuses
 118:.\main.c      **** *  - STS_CMD_DONE: command is executed successfully.
 119:.\main.c      **** *  - STS_CMD_FAIL: unknown command
 120:.\main.c      **** *
 121:.\main.c      **** *******************************************************************************/
 122:.\main.c      **** uint8 ExecuteCommand(uint32 cmd, uint32 cmd1)
 123:.\main.c      **** {
 150              		.loc 1 123 0
 151              		.cfi_startproc
 152 0000 80B5     		push	{r7, lr}
 153              		.cfi_def_cfa_offset 8
 154              		.cfi_offset 7, -8
 155              		.cfi_offset 14, -4
 156 0002 84B0     		sub	sp, sp, #16
 157              		.cfi_def_cfa_offset 24
 158 0004 00AF     		add	r7, sp, #0
 159              		.cfi_def_cfa_register 7
 160 0006 7860     		str	r0, [r7, #4]
 161 0008 3960     		str	r1, [r7]
ARM GAS  C:\Users\Anders\AppData\Local\Temp\ccAS6RzH.s 			page 6


 124:.\main.c      ****     uint8 status;
 125:.\main.c      ****     uint16 pos = cmd << 8 | cmd1;
 162              		.loc 1 125 0
 163 000a 7B68     		ldr	r3, [r7, #4]
 164 000c 9BB2     		uxth	r3, r3
 165 000e 1B02     		lsl	r3, r3, #8
 166 0010 99B2     		uxth	r1, r3
 167 0012 3B68     		ldr	r3, [r7]
 168 0014 9AB2     		uxth	r2, r3
 169 0016 0E23     		mov	r3, #14
 170 0018 FB18     		add	r3, r7, r3
 171 001a 0A43     		orr	r2, r1
 172 001c 1A80     		strh	r2, [r3]
 126:.\main.c      ****     status = STS_CMD_DONE;
 173              		.loc 1 126 0
 174 001e 0D23     		mov	r3, #13
 175 0020 FB18     		add	r3, r7, r3
 176 0022 0022     		mov	r2, #0
 177 0024 1A70     		strb	r2, [r3]
 127:.\main.c      **** 
 128:.\main.c      ****     PWM_2_WriteCompare(pos);
 178              		.loc 1 128 0
 179 0026 0E23     		mov	r3, #14
 180 0028 FB18     		add	r3, r7, r3
 181 002a 1B88     		ldrh	r3, [r3]
 182 002c 181C     		mov	r0, r3
 183 002e FFF7FEFF 		bl	PWM_2_WriteCompare
 129:.\main.c      ****     
 130:.\main.c      **** 
 131:.\main.c      ****     return (status);
 184              		.loc 1 131 0
 185 0032 0D23     		mov	r3, #13
 186 0034 FB18     		add	r3, r7, r3
 187 0036 1B78     		ldrb	r3, [r3]
 132:.\main.c      **** }
 188              		.loc 1 132 0
 189 0038 181C     		mov	r0, r3
 190 003a BD46     		mov	sp, r7
 191 003c 04B0     		add	sp, sp, #16
 192              		@ sp needed
 193 003e 80BD     		pop	{r7, pc}
 194              		.cfi_endproc
 195              	.LFE35:
 196              		.size	ExecuteCommand, .-ExecuteCommand
 197              		.text
 198              	.Letext0:
 199              		.file 2 "Generated_Source\\PSoC4/cytypes.h"