ARM GAS  C:\Users\Anders\AppData\Local\Temp\ccO2NzYt.s 			page 1


   1              		.cpu cortex-m0
   2              		.fpu softvfp
   3              		.eabi_attribute 20, 1
   4              		.eabi_attribute 21, 1
   5              		.eabi_attribute 23, 3
   6              		.eabi_attribute 24, 1
   7              		.eabi_attribute 25, 1
   8              		.eabi_attribute 26, 1
   9              		.eabi_attribute 30, 1
  10              		.eabi_attribute 34, 0
  11              		.eabi_attribute 18, 4
  12              		.code	16
  13              		.file	"cyfitter_cfg.c"
  14              		.text
  15              	.Ltext0:
  16              		.cfi_sections	.debug_frame
  17              		.section	.text.cfg_write_bytes32,"ax",%progbits
  18              		.align	2
  19              		.code	16
  20              		.thumb_func
  21              		.type	cfg_write_bytes32, %function
  22              	cfg_write_bytes32:
  23              	.LFB3:
  24              		.file 1 "Generated_Source\\PSoC4\\cyfitter_cfg.c"
   1:Generated_Source\PSoC4/cyfitter_cfg.c **** /*******************************************************************************
   2:Generated_Source\PSoC4/cyfitter_cfg.c **** * File Name: cyfitter_cfg.c
   3:Generated_Source\PSoC4/cyfitter_cfg.c **** * 
   4:Generated_Source\PSoC4/cyfitter_cfg.c **** * PSoC Creator  4.0
   5:Generated_Source\PSoC4/cyfitter_cfg.c **** *
   6:Generated_Source\PSoC4/cyfitter_cfg.c **** * Description:
   7:Generated_Source\PSoC4/cyfitter_cfg.c **** * This file contains device initialization code.
   8:Generated_Source\PSoC4/cyfitter_cfg.c **** * Except for the user defined sections in CyClockStartupError(), this file should not be modified.
   9:Generated_Source\PSoC4/cyfitter_cfg.c **** * This file is automatically generated by PSoC Creator.
  10:Generated_Source\PSoC4/cyfitter_cfg.c **** *
  11:Generated_Source\PSoC4/cyfitter_cfg.c **** ********************************************************************************
  12:Generated_Source\PSoC4/cyfitter_cfg.c **** * Copyright (c) 2007-2016 Cypress Semiconductor.  All rights reserved.
  13:Generated_Source\PSoC4/cyfitter_cfg.c **** * You may use this file only in accordance with the license, terms, conditions, 
  14:Generated_Source\PSoC4/cyfitter_cfg.c **** * disclaimers, and limitations in the end user license agreement accompanying 
  15:Generated_Source\PSoC4/cyfitter_cfg.c **** * the software package with which this file was provided.
  16:Generated_Source\PSoC4/cyfitter_cfg.c **** ********************************************************************************/
  17:Generated_Source\PSoC4/cyfitter_cfg.c **** 
  18:Generated_Source\PSoC4/cyfitter_cfg.c **** #include <string.h>
  19:Generated_Source\PSoC4/cyfitter_cfg.c **** #include "cytypes.h"
  20:Generated_Source\PSoC4/cyfitter_cfg.c **** #include "cydevice_trm.h"
  21:Generated_Source\PSoC4/cyfitter_cfg.c **** #include "cyfitter.h"
  22:Generated_Source\PSoC4/cyfitter_cfg.c **** #include "CyLib.h"
  23:Generated_Source\PSoC4/cyfitter_cfg.c **** #include "CyLFClk.h"
  24:Generated_Source\PSoC4/cyfitter_cfg.c **** #include "cyfitter_cfg.h"
  25:Generated_Source\PSoC4/cyfitter_cfg.c **** #include "cyapicallbacks.h"
  26:Generated_Source\PSoC4/cyfitter_cfg.c **** 
  27:Generated_Source\PSoC4/cyfitter_cfg.c **** 
  28:Generated_Source\PSoC4/cyfitter_cfg.c **** #if defined(__GNUC__) || defined(__ARMCC_VERSION)
  29:Generated_Source\PSoC4/cyfitter_cfg.c ****     #define CYPACKED 
  30:Generated_Source\PSoC4/cyfitter_cfg.c ****     #define CYPACKED_ATTR __attribute__ ((packed))
  31:Generated_Source\PSoC4/cyfitter_cfg.c ****     #define CYALIGNED __attribute__ ((aligned))
  32:Generated_Source\PSoC4/cyfitter_cfg.c ****     #define CY_CFG_UNUSED __attribute__ ((unused))
  33:Generated_Source\PSoC4/cyfitter_cfg.c ****     #ifndef CY_CFG_SECTION
ARM GAS  C:\Users\Anders\AppData\Local\Temp\ccO2NzYt.s 			page 2


  34:Generated_Source\PSoC4/cyfitter_cfg.c ****         #define CY_CFG_SECTION __attribute__ ((section(".psocinit")))
  35:Generated_Source\PSoC4/cyfitter_cfg.c ****     #endif
  36:Generated_Source\PSoC4/cyfitter_cfg.c ****     
  37:Generated_Source\PSoC4/cyfitter_cfg.c ****     #if defined(__ARMCC_VERSION)
  38:Generated_Source\PSoC4/cyfitter_cfg.c ****         #define CY_CFG_MEMORY_BARRIER() __memory_changed()
  39:Generated_Source\PSoC4/cyfitter_cfg.c ****     #else
  40:Generated_Source\PSoC4/cyfitter_cfg.c ****         #define CY_CFG_MEMORY_BARRIER() __sync_synchronize()
  41:Generated_Source\PSoC4/cyfitter_cfg.c ****     #endif
  42:Generated_Source\PSoC4/cyfitter_cfg.c ****     
  43:Generated_Source\PSoC4/cyfitter_cfg.c **** #elif defined(__ICCARM__)
  44:Generated_Source\PSoC4/cyfitter_cfg.c ****     #include <intrinsics.h>
  45:Generated_Source\PSoC4/cyfitter_cfg.c **** 
  46:Generated_Source\PSoC4/cyfitter_cfg.c ****     #define CYPACKED __packed
  47:Generated_Source\PSoC4/cyfitter_cfg.c ****     #define CYPACKED_ATTR 
  48:Generated_Source\PSoC4/cyfitter_cfg.c ****     #define CYALIGNED _Pragma("data_alignment=4")
  49:Generated_Source\PSoC4/cyfitter_cfg.c ****     #define CY_CFG_UNUSED _Pragma("diag_suppress=Pe177")
  50:Generated_Source\PSoC4/cyfitter_cfg.c ****     #define CY_CFG_SECTION _Pragma("location=\".psocinit\"")
  51:Generated_Source\PSoC4/cyfitter_cfg.c ****     
  52:Generated_Source\PSoC4/cyfitter_cfg.c ****     #define CY_CFG_MEMORY_BARRIER() __DMB()
  53:Generated_Source\PSoC4/cyfitter_cfg.c ****     
  54:Generated_Source\PSoC4/cyfitter_cfg.c **** #else
  55:Generated_Source\PSoC4/cyfitter_cfg.c ****     #error Unsupported toolchain
  56:Generated_Source\PSoC4/cyfitter_cfg.c **** #endif
  57:Generated_Source\PSoC4/cyfitter_cfg.c **** 
  58:Generated_Source\PSoC4/cyfitter_cfg.c **** 
  59:Generated_Source\PSoC4/cyfitter_cfg.c **** CY_CFG_UNUSED
  60:Generated_Source\PSoC4/cyfitter_cfg.c **** static void CYMEMZERO(void *s, size_t n);
  61:Generated_Source\PSoC4/cyfitter_cfg.c **** CY_CFG_UNUSED
  62:Generated_Source\PSoC4/cyfitter_cfg.c **** static void CYMEMZERO(void *s, size_t n)
  63:Generated_Source\PSoC4/cyfitter_cfg.c **** {
  64:Generated_Source\PSoC4/cyfitter_cfg.c **** 	(void)memset(s, 0, n);
  65:Generated_Source\PSoC4/cyfitter_cfg.c **** }
  66:Generated_Source\PSoC4/cyfitter_cfg.c **** CY_CFG_UNUSED
  67:Generated_Source\PSoC4/cyfitter_cfg.c **** static void CYCONFIGCPY(void *dest, const void *src, size_t n);
  68:Generated_Source\PSoC4/cyfitter_cfg.c **** CY_CFG_UNUSED
  69:Generated_Source\PSoC4/cyfitter_cfg.c **** static void CYCONFIGCPY(void *dest, const void *src, size_t n)
  70:Generated_Source\PSoC4/cyfitter_cfg.c **** {
  71:Generated_Source\PSoC4/cyfitter_cfg.c **** 	(void)memcpy(dest, src, n);
  72:Generated_Source\PSoC4/cyfitter_cfg.c **** }
  73:Generated_Source\PSoC4/cyfitter_cfg.c **** CY_CFG_UNUSED
  74:Generated_Source\PSoC4/cyfitter_cfg.c **** static void CYCONFIGCPYCODE(void *dest, const void *src, size_t n);
  75:Generated_Source\PSoC4/cyfitter_cfg.c **** CY_CFG_UNUSED
  76:Generated_Source\PSoC4/cyfitter_cfg.c **** static void CYCONFIGCPYCODE(void *dest, const void *src, size_t n)
  77:Generated_Source\PSoC4/cyfitter_cfg.c **** {
  78:Generated_Source\PSoC4/cyfitter_cfg.c **** 	(void)memcpy(dest, src, n);
  79:Generated_Source\PSoC4/cyfitter_cfg.c **** }
  80:Generated_Source\PSoC4/cyfitter_cfg.c **** 
  81:Generated_Source\PSoC4/cyfitter_cfg.c **** 
  82:Generated_Source\PSoC4/cyfitter_cfg.c **** 
  83:Generated_Source\PSoC4/cyfitter_cfg.c **** 
  84:Generated_Source\PSoC4/cyfitter_cfg.c **** /* Clock startup error codes                                                   */
  85:Generated_Source\PSoC4/cyfitter_cfg.c **** #define CYCLOCKSTART_NO_ERROR    0u
  86:Generated_Source\PSoC4/cyfitter_cfg.c **** #define CYCLOCKSTART_XTAL_ERROR  1u
  87:Generated_Source\PSoC4/cyfitter_cfg.c **** #define CYCLOCKSTART_32KHZ_ERROR 2u
  88:Generated_Source\PSoC4/cyfitter_cfg.c **** #define CYCLOCKSTART_PLL_ERROR   3u
  89:Generated_Source\PSoC4/cyfitter_cfg.c **** 
  90:Generated_Source\PSoC4/cyfitter_cfg.c **** 
ARM GAS  C:\Users\Anders\AppData\Local\Temp\ccO2NzYt.s 			page 3


  91:Generated_Source\PSoC4/cyfitter_cfg.c **** #ifdef CY_NEED_CYCLOCKSTARTUPERROR
  92:Generated_Source\PSoC4/cyfitter_cfg.c **** /*******************************************************************************
  93:Generated_Source\PSoC4/cyfitter_cfg.c **** * Function Name: CyClockStartupError
  94:Generated_Source\PSoC4/cyfitter_cfg.c **** ********************************************************************************
  95:Generated_Source\PSoC4/cyfitter_cfg.c **** * Summary:
  96:Generated_Source\PSoC4/cyfitter_cfg.c **** *  If an error is encountered during clock configuration (crystal startup error,
  97:Generated_Source\PSoC4/cyfitter_cfg.c **** *  PLL lock error, etc.), the system will end up here.  Unless reimplemented by
  98:Generated_Source\PSoC4/cyfitter_cfg.c **** *  the customer, this function will stop in an infinite loop.
  99:Generated_Source\PSoC4/cyfitter_cfg.c **** *
 100:Generated_Source\PSoC4/cyfitter_cfg.c **** * Parameters:
 101:Generated_Source\PSoC4/cyfitter_cfg.c **** *   void
 102:Generated_Source\PSoC4/cyfitter_cfg.c **** *
 103:Generated_Source\PSoC4/cyfitter_cfg.c **** * Return:
 104:Generated_Source\PSoC4/cyfitter_cfg.c **** *   void
 105:Generated_Source\PSoC4/cyfitter_cfg.c **** *
 106:Generated_Source\PSoC4/cyfitter_cfg.c **** *******************************************************************************/
 107:Generated_Source\PSoC4/cyfitter_cfg.c **** CY_CFG_UNUSED
 108:Generated_Source\PSoC4/cyfitter_cfg.c **** static void CyClockStartupError(uint8 errorCode);
 109:Generated_Source\PSoC4/cyfitter_cfg.c **** CY_CFG_UNUSED
 110:Generated_Source\PSoC4/cyfitter_cfg.c **** static void CyClockStartupError(uint8 errorCode)
 111:Generated_Source\PSoC4/cyfitter_cfg.c **** {
 112:Generated_Source\PSoC4/cyfitter_cfg.c ****     /* To remove the compiler warning if errorCode not used.                */
 113:Generated_Source\PSoC4/cyfitter_cfg.c ****     errorCode = errorCode;
 114:Generated_Source\PSoC4/cyfitter_cfg.c **** 
 115:Generated_Source\PSoC4/cyfitter_cfg.c ****     /* If we have a clock startup error (bad MHz crystal, PLL lock, etc.),  */
 116:Generated_Source\PSoC4/cyfitter_cfg.c ****     /* we will end up here to allow the customer to implement something to  */
 117:Generated_Source\PSoC4/cyfitter_cfg.c ****     /* deal with the clock condition.                                       */
 118:Generated_Source\PSoC4/cyfitter_cfg.c **** 
 119:Generated_Source\PSoC4/cyfitter_cfg.c **** #ifdef CY_CFG_CLOCK_STARTUP_ERROR_CALLBACK
 120:Generated_Source\PSoC4/cyfitter_cfg.c **** 	CY_CFG_Clock_Startup_ErrorCallback();
 121:Generated_Source\PSoC4/cyfitter_cfg.c **** #else
 122:Generated_Source\PSoC4/cyfitter_cfg.c **** 	/*  If not using CY_CFG_CLOCK_STARTUP_ERROR_CALLBACK, place your clock startup code here. */
 123:Generated_Source\PSoC4/cyfitter_cfg.c ****     /* `#START CyClockStartupError` */
 124:Generated_Source\PSoC4/cyfitter_cfg.c **** 
 125:Generated_Source\PSoC4/cyfitter_cfg.c **** 
 126:Generated_Source\PSoC4/cyfitter_cfg.c **** 
 127:Generated_Source\PSoC4/cyfitter_cfg.c ****     /* `#END` */
 128:Generated_Source\PSoC4/cyfitter_cfg.c **** 
 129:Generated_Source\PSoC4/cyfitter_cfg.c ****     /* If nothing else, stop here since the clocks have not started         */
 130:Generated_Source\PSoC4/cyfitter_cfg.c ****     /* correctly.                                                           */
 131:Generated_Source\PSoC4/cyfitter_cfg.c ****     while(1) {}
 132:Generated_Source\PSoC4/cyfitter_cfg.c **** #endif /* CY_CFG_CLOCK_STARTUP_ERROR_CALLBACK */ 
 133:Generated_Source\PSoC4/cyfitter_cfg.c **** }
 134:Generated_Source\PSoC4/cyfitter_cfg.c **** #endif
 135:Generated_Source\PSoC4/cyfitter_cfg.c **** 
 136:Generated_Source\PSoC4/cyfitter_cfg.c **** #define CY_CFG_BASE_ADDR_COUNT 8u
 137:Generated_Source\PSoC4/cyfitter_cfg.c **** CYPACKED typedef struct
 138:Generated_Source\PSoC4/cyfitter_cfg.c **** {
 139:Generated_Source\PSoC4/cyfitter_cfg.c **** 	uint8 offset;
 140:Generated_Source\PSoC4/cyfitter_cfg.c **** 	uint8 value;
 141:Generated_Source\PSoC4/cyfitter_cfg.c **** } CYPACKED_ATTR cy_cfg_addrvalue_t;
 142:Generated_Source\PSoC4/cyfitter_cfg.c **** 
 143:Generated_Source\PSoC4/cyfitter_cfg.c **** 
 144:Generated_Source\PSoC4/cyfitter_cfg.c **** 
 145:Generated_Source\PSoC4/cyfitter_cfg.c **** /*******************************************************************************
 146:Generated_Source\PSoC4/cyfitter_cfg.c **** * Function Name: cfg_write_bytes32
 147:Generated_Source\PSoC4/cyfitter_cfg.c **** ********************************************************************************
ARM GAS  C:\Users\Anders\AppData\Local\Temp\ccO2NzYt.s 			page 4


 148:Generated_Source\PSoC4/cyfitter_cfg.c **** * Summary:
 149:Generated_Source\PSoC4/cyfitter_cfg.c **** *  This function is used for setting up the chip configuration areas that
 150:Generated_Source\PSoC4/cyfitter_cfg.c **** *  contain relatively sparse data.
 151:Generated_Source\PSoC4/cyfitter_cfg.c **** *
 152:Generated_Source\PSoC4/cyfitter_cfg.c **** * Parameters:
 153:Generated_Source\PSoC4/cyfitter_cfg.c **** *   void
 154:Generated_Source\PSoC4/cyfitter_cfg.c **** *
 155:Generated_Source\PSoC4/cyfitter_cfg.c **** * Return:
 156:Generated_Source\PSoC4/cyfitter_cfg.c **** *   void
 157:Generated_Source\PSoC4/cyfitter_cfg.c **** *
 158:Generated_Source\PSoC4/cyfitter_cfg.c **** *******************************************************************************/
 159:Generated_Source\PSoC4/cyfitter_cfg.c **** static void cfg_write_bytes32(const uint32 addr_table[], const cy_cfg_addrvalue_t data_table[]);
 160:Generated_Source\PSoC4/cyfitter_cfg.c **** static void cfg_write_bytes32(const uint32 addr_table[], const cy_cfg_addrvalue_t data_table[])
 161:Generated_Source\PSoC4/cyfitter_cfg.c **** {
  25              		.loc 1 161 0
  26              		.cfi_startproc
  27              	.LVL0:
  28 0000 F0B5     		push	{r4, r5, r6, r7, lr}
  29              		.cfi_def_cfa_offset 20
  30              		.cfi_offset 4, -20
  31              		.cfi_offset 5, -16
  32              		.cfi_offset 6, -12
  33              		.cfi_offset 7, -8
  34              		.cfi_offset 14, -4
  35              	.LVL1:
 162:Generated_Source\PSoC4/cyfitter_cfg.c **** 	/* For 32-bit little-endian architectures */
 163:Generated_Source\PSoC4/cyfitter_cfg.c **** 	uint32 i, j = 0u;
  36              		.loc 1 163 0
  37 0002 0025     		mov	r5, #0
 164:Generated_Source\PSoC4/cyfitter_cfg.c **** 	for (i = 0u; i < CY_CFG_BASE_ADDR_COUNT; i++)
  38              		.loc 1 164 0
  39 0004 0027     		mov	r7, #0
  40 0006 11E0     		b	.L2
  41              	.LVL2:
  42              	.L5:
  43              	.LBB2:
 165:Generated_Source\PSoC4/cyfitter_cfg.c **** 	{
 166:Generated_Source\PSoC4/cyfitter_cfg.c **** 		uint32 baseAddr = addr_table[i];
  44              		.loc 1 166 0
  45 0008 BB00     		lsl	r3, r7, #2
  46 000a C658     		ldr	r6, [r0, r3]
  47              	.LVL3:
 167:Generated_Source\PSoC4/cyfitter_cfg.c **** 		uint8 count = (uint8)baseAddr;
  48              		.loc 1 167 0
  49 000c F3B2     		uxtb	r3, r6
  50              	.LVL4:
 168:Generated_Source\PSoC4/cyfitter_cfg.c **** 		baseAddr &= 0xFFFFFF00u;
  51              		.loc 1 168 0
  52 000e FF22     		mov	r2, #255
  53 0010 9643     		bic	r6, r2
  54              	.LVL5:
 169:Generated_Source\PSoC4/cyfitter_cfg.c **** 		while (count != 0u)
  55              		.loc 1 169 0
  56 0012 08E0     		b	.L3
  57              	.L4:
 170:Generated_Source\PSoC4/cyfitter_cfg.c **** 		{
 171:Generated_Source\PSoC4/cyfitter_cfg.c **** 			CY_SET_XTND_REG8((void CYFAR *)(baseAddr + data_table[j].offset), data_table[j].value);
ARM GAS  C:\Users\Anders\AppData\Local\Temp\ccO2NzYt.s 			page 5


  58              		.loc 1 171 0
  59 0014 6A00     		lsl	r2, r5, #1
  60 0016 8A18     		add	r2, r1, r2
  61 0018 1478     		ldrb	r4, [r2]
  62 001a A419     		add	r4, r4, r6
  63 001c 5278     		ldrb	r2, [r2, #1]
  64 001e 2270     		strb	r2, [r4]
 172:Generated_Source\PSoC4/cyfitter_cfg.c **** 			j++;
  65              		.loc 1 172 0
  66 0020 0135     		add	r5, r5, #1
  67              	.LVL6:
 173:Generated_Source\PSoC4/cyfitter_cfg.c **** 			count--;
  68              		.loc 1 173 0
  69 0022 013B     		sub	r3, r3, #1
  70              	.LVL7:
  71 0024 DBB2     		uxtb	r3, r3
  72              	.LVL8:
  73              	.L3:
 169:Generated_Source\PSoC4/cyfitter_cfg.c **** 		{
  74              		.loc 1 169 0
  75 0026 002B     		cmp	r3, #0
  76 0028 F4D1     		bne	.L4
  77              	.LBE2:
 164:Generated_Source\PSoC4/cyfitter_cfg.c **** 	{
  78              		.loc 1 164 0 discriminator 2
  79 002a 0137     		add	r7, r7, #1
  80              	.LVL9:
  81              	.L2:
 164:Generated_Source\PSoC4/cyfitter_cfg.c **** 	{
  82              		.loc 1 164 0 is_stmt 0 discriminator 1
  83 002c 072F     		cmp	r7, #7
  84 002e EBD9     		bls	.L5
 174:Generated_Source\PSoC4/cyfitter_cfg.c **** 		}
 175:Generated_Source\PSoC4/cyfitter_cfg.c **** 	}
 176:Generated_Source\PSoC4/cyfitter_cfg.c **** }
  85              		.loc 1 176 0 is_stmt 1
  86              		@ sp needed
  87              	.LVL10:
  88              	.LVL11:
  89 0030 F0BD     		pop	{r4, r5, r6, r7, pc}
  90              		.cfi_endproc
  91              	.LFE3:
  92              		.size	cfg_write_bytes32, .-cfg_write_bytes32
  93 0032 C046     		.section	.text.CYMEMZERO,"ax",%progbits
  94              		.align	2
  95              		.code	16
  96              		.thumb_func
  97              		.type	CYMEMZERO, %function
  98              	CYMEMZERO:
  99              	.LFB0:
  63:Generated_Source\PSoC4/cyfitter_cfg.c **** 	(void)memset(s, 0, n);
 100              		.loc 1 63 0
 101              		.cfi_startproc
 102              	.LVL12:
 103 0000 08B5     		push	{r3, lr}
 104              		.cfi_def_cfa_offset 8
 105              		.cfi_offset 3, -8
ARM GAS  C:\Users\Anders\AppData\Local\Temp\ccO2NzYt.s 			page 6


 106              		.cfi_offset 14, -4
 107 0002 0A1C     		mov	r2, r1
  64:Generated_Source\PSoC4/cyfitter_cfg.c **** }
 108              		.loc 1 64 0
 109 0004 0021     		mov	r1, #0
 110              	.LVL13:
 111 0006 FFF7FEFF 		bl	memset
 112              	.LVL14:
  65:Generated_Source\PSoC4/cyfitter_cfg.c **** CY_CFG_UNUSED
 113              		.loc 1 65 0
 114              		@ sp needed
 115 000a 08BD     		pop	{r3, pc}
 116              		.cfi_endproc
 117              	.LFE0:
 118              		.size	CYMEMZERO, .-CYMEMZERO
 119              		.section	.psocinit,"ax",%progbits
 120              		.align	2
 121              		.code	16
 122              		.thumb_func
 123              		.type	ClockSetup, %function
 124              	ClockSetup:
 125              	.LFB4:
 177:Generated_Source\PSoC4/cyfitter_cfg.c **** 
 178:Generated_Source\PSoC4/cyfitter_cfg.c **** 
 179:Generated_Source\PSoC4/cyfitter_cfg.c **** /*******************************************************************************
 180:Generated_Source\PSoC4/cyfitter_cfg.c **** * Function Name: ClockSetup
 181:Generated_Source\PSoC4/cyfitter_cfg.c **** ********************************************************************************
 182:Generated_Source\PSoC4/cyfitter_cfg.c **** *
 183:Generated_Source\PSoC4/cyfitter_cfg.c **** * Summary:
 184:Generated_Source\PSoC4/cyfitter_cfg.c **** *   Performs the initialization of all of the clocks in the device based on the
 185:Generated_Source\PSoC4/cyfitter_cfg.c **** *   settings in the Clock tab of the DWR.  This includes enabling the requested
 186:Generated_Source\PSoC4/cyfitter_cfg.c **** *   clocks and setting the necessary dividers to produce the desired frequency. 
 187:Generated_Source\PSoC4/cyfitter_cfg.c **** *
 188:Generated_Source\PSoC4/cyfitter_cfg.c **** * Parameters:
 189:Generated_Source\PSoC4/cyfitter_cfg.c **** *   void
 190:Generated_Source\PSoC4/cyfitter_cfg.c **** *
 191:Generated_Source\PSoC4/cyfitter_cfg.c **** * Return:
 192:Generated_Source\PSoC4/cyfitter_cfg.c **** *   void
 193:Generated_Source\PSoC4/cyfitter_cfg.c **** *
 194:Generated_Source\PSoC4/cyfitter_cfg.c **** *******************************************************************************/
 195:Generated_Source\PSoC4/cyfitter_cfg.c **** static void ClockSetup(void);
 196:Generated_Source\PSoC4/cyfitter_cfg.c **** CY_CFG_SECTION
 197:Generated_Source\PSoC4/cyfitter_cfg.c **** static void ClockSetup(void)
 198:Generated_Source\PSoC4/cyfitter_cfg.c **** {
 126              		.loc 1 198 0
 127              		.cfi_startproc
 128 0000 38B5     		push	{r3, r4, r5, lr}
 129              		.cfi_def_cfa_offset 16
 130              		.cfi_offset 3, -16
 131              		.cfi_offset 4, -12
 132              		.cfi_offset 5, -8
 133              		.cfi_offset 14, -4
 199:Generated_Source\PSoC4/cyfitter_cfg.c **** 	/* Enable HALF_EN before trimming for the flash accelerator. */
 200:Generated_Source\PSoC4/cyfitter_cfg.c **** 	CY_SET_REG32((void CYXDATA *)(CYREG_CLK_SELECT), (CY_GET_REG32((void *)CYREG_CLK_SELECT) | 0x00040
 134              		.loc 1 200 0
 135 0002 174C     		ldr	r4, .L8
 136 0004 2368     		ldr	r3, [r4]
ARM GAS  C:\Users\Anders\AppData\Local\Temp\ccO2NzYt.s 			page 7


 137 0006 8022     		mov	r2, #128
 138 0008 D202     		lsl	r2, r2, #11
 139 000a 1343     		orr	r3, r2
 140 000c 2360     		str	r3, [r4]
 201:Generated_Source\PSoC4/cyfitter_cfg.c **** 
 202:Generated_Source\PSoC4/cyfitter_cfg.c **** 	/* Setup and trim IMO based on desired frequency. */
 203:Generated_Source\PSoC4/cyfitter_cfg.c **** 	CySysClkWriteImoFreq(24u);
 141              		.loc 1 203 0
 142 000e 1820     		mov	r0, #24
 143 0010 FFF7FEFF 		bl	CySysClkWriteImoFreq
 144              	.LVL15:
 204:Generated_Source\PSoC4/cyfitter_cfg.c **** 
 205:Generated_Source\PSoC4/cyfitter_cfg.c **** 	/* Disable HALF_EN since it is not required at this IMO frequency. */
 206:Generated_Source\PSoC4/cyfitter_cfg.c **** 	CY_SET_REG32((void CYXDATA *)(CYREG_CLK_SELECT), (CY_GET_REG32((void *)CYREG_CLK_SELECT) & 0xFFFBF
 145              		.loc 1 206 0
 146 0014 2268     		ldr	r2, [r4]
 147 0016 134B     		ldr	r3, .L8+4
 148 0018 1340     		and	r3, r2
 149 001a 2360     		str	r3, [r4]
 207:Generated_Source\PSoC4/cyfitter_cfg.c **** 	/* CYDEV_CLK_ILO_CONFIG Starting address: CYDEV_CLK_ILO_CONFIG */
 208:Generated_Source\PSoC4/cyfitter_cfg.c **** 	CY_SET_XTND_REG32((void CYFAR *)(CYREG_CLK_ILO_CONFIG), 0x80000006u);
 150              		.loc 1 208 0
 151 001c 124A     		ldr	r2, .L8+8
 152 001e 134B     		ldr	r3, .L8+12
 153 0020 1A60     		str	r2, [r3]
 209:Generated_Source\PSoC4/cyfitter_cfg.c **** 
 210:Generated_Source\PSoC4/cyfitter_cfg.c **** 
 211:Generated_Source\PSoC4/cyfitter_cfg.c **** 	/* CYDEV_CLK_SELECT00 Starting address: CYDEV_CLK_SELECT00 */
 212:Generated_Source\PSoC4/cyfitter_cfg.c **** 	CY_SET_XTND_REG32((void CYFAR *)(CYREG_CLK_SELECT03), 0x00000010u);
 154              		.loc 1 212 0
 155 0022 1022     		mov	r2, #16
 156 0024 124B     		ldr	r3, .L8+16
 157 0026 1A60     		str	r2, [r3]
 213:Generated_Source\PSoC4/cyfitter_cfg.c **** 	CY_SET_XTND_REG32((void CYFAR *)(CYREG_CLK_SELECT12), 0x00000030u);
 158              		.loc 1 213 0
 159 0028 2032     		add	r2, r2, #32
 160 002a 124B     		ldr	r3, .L8+20
 161 002c 1A60     		str	r2, [r3]
 214:Generated_Source\PSoC4/cyfitter_cfg.c **** 
 215:Generated_Source\PSoC4/cyfitter_cfg.c **** 	/* CYDEV_CLK_IMO_CONFIG Starting address: CYDEV_CLK_IMO_CONFIG */
 216:Generated_Source\PSoC4/cyfitter_cfg.c **** 	CY_SET_XTND_REG32((void CYFAR *)(CYREG_CLK_IMO_CONFIG), 0x80000000u);
 162              		.loc 1 216 0
 163 002e 8022     		mov	r2, #128
 164 0030 1206     		lsl	r2, r2, #24
 165 0032 114B     		ldr	r3, .L8+24
 166 0034 1A60     		str	r2, [r3]
 217:Generated_Source\PSoC4/cyfitter_cfg.c **** 
 218:Generated_Source\PSoC4/cyfitter_cfg.c **** 	/* CYDEV_CLK_SELECT Starting address: CYDEV_CLK_SELECT */
 219:Generated_Source\PSoC4/cyfitter_cfg.c **** 	CY_SET_XTND_REG32((void CYFAR *)(CYREG_CLK_SELECT), 0x00000000u);
 167              		.loc 1 219 0
 168 0036 0025     		mov	r5, #0
 169 0038 2560     		str	r5, [r4]
 220:Generated_Source\PSoC4/cyfitter_cfg.c **** 
 221:Generated_Source\PSoC4/cyfitter_cfg.c **** 	/* CYDEV_CLK_DIVIDER_A00 Starting address: CYDEV_CLK_DIVIDER_A00 */
 222:Generated_Source\PSoC4/cyfitter_cfg.c **** 	CY_SET_XTND_REG32((void CYFAR *)(CYREG_CLK_DIVIDER_A00), 0x80000002u);
 170              		.loc 1 222 0
 171 003a 104A     		ldr	r2, .L8+28
ARM GAS  C:\Users\Anders\AppData\Local\Temp\ccO2NzYt.s 			page 8


 172 003c 104B     		ldr	r3, .L8+32
 173 003e 1A60     		str	r2, [r3]
 223:Generated_Source\PSoC4/cyfitter_cfg.c **** 
 224:Generated_Source\PSoC4/cyfitter_cfg.c **** 	/* CYDEV_CLK_DIVIDER_B00 Starting address: CYDEV_CLK_DIVIDER_B00 */
 225:Generated_Source\PSoC4/cyfitter_cfg.c **** 	CY_SET_XTND_REG32((void CYFAR *)(CYREG_CLK_DIVIDER_B00), 0x80000176u);
 174              		.loc 1 225 0
 175 0040 104A     		ldr	r2, .L8+36
 176 0042 114B     		ldr	r3, .L8+40
 177 0044 1A60     		str	r2, [r3]
 226:Generated_Source\PSoC4/cyfitter_cfg.c **** 
 227:Generated_Source\PSoC4/cyfitter_cfg.c **** 	/* CYDEV_CLK_DIVIDER_C00 Starting address: CYDEV_CLK_DIVIDER_C00 */
 228:Generated_Source\PSoC4/cyfitter_cfg.c **** 	CY_SET_XTND_REG32((void CYFAR *)(CYREG_CLK_DIVIDER_C00), 0xC000013Fu);
 178              		.loc 1 228 0
 179 0046 114A     		ldr	r2, .L8+44
 180 0048 114B     		ldr	r3, .L8+48
 181 004a 1A60     		str	r2, [r3]
 229:Generated_Source\PSoC4/cyfitter_cfg.c **** 
 230:Generated_Source\PSoC4/cyfitter_cfg.c **** 	(void)CyIntSetVector(9u, &CySysWdtIsr);
 182              		.loc 1 230 0
 183 004c 0920     		mov	r0, #9
 184 004e 1149     		ldr	r1, .L8+52
 185 0050 FFF7FEFF 		bl	CyIntSetVector
 186              	.LVL16:
 231:Generated_Source\PSoC4/cyfitter_cfg.c **** 	CyIntEnable(9u);
 187              		.loc 1 231 0
 188 0054 0920     		mov	r0, #9
 189 0056 FFF7FEFF 		bl	CyIntEnable
 190              	.LVL17:
 232:Generated_Source\PSoC4/cyfitter_cfg.c **** 	CY_SET_XTND_REG32((void CYFAR *)(CYREG_WDT_CONFIG), 0x00000000u);
 191              		.loc 1 232 0
 192 005a 0F4B     		ldr	r3, .L8+56
 193 005c 1D60     		str	r5, [r3]
 233:Generated_Source\PSoC4/cyfitter_cfg.c **** }
 194              		.loc 1 233 0
 195              		@ sp needed
 196 005e 38BD     		pop	{r3, r4, r5, pc}
 197              	.L9:
 198              		.align	2
 199              	.L8:
 200 0060 00010B40 		.word	1074462976
 201 0064 FFFFFBFF 		.word	-262145
 202 0068 06000080 		.word	-2147483642
 203 006c 04010B40 		.word	1074462980
 204 0070 0C020240 		.word	1073873420
 205 0074 30020240 		.word	1073873456
 206 0078 08010B40 		.word	1074462984
 207 007c 02000080 		.word	-2147483646
 208 0080 00000240 		.word	1073872896
 209 0084 76010080 		.word	-2147483274
 210 0088 40000240 		.word	1073872960
 211 008c 3F0100C0 		.word	-1073741505
 212 0090 80000240 		.word	1073873024
 213 0094 00000000 		.word	CySysWdtIsr
 214 0098 0C020B40 		.word	1074463244
 215              		.cfi_endproc
 216              	.LFE4:
 217              		.size	ClockSetup, .-ClockSetup
ARM GAS  C:\Users\Anders\AppData\Local\Temp\ccO2NzYt.s 			page 9


 218              		.align	2
 219              		.global	cyfitter_cfg
 220              		.code	16
 221              		.thumb_func
 222              		.type	cyfitter_cfg, %function
 223              	cyfitter_cfg:
 224              	.LFB6:
 234:Generated_Source\PSoC4/cyfitter_cfg.c **** 
 235:Generated_Source\PSoC4/cyfitter_cfg.c **** 
 236:Generated_Source\PSoC4/cyfitter_cfg.c **** /* Analog API Functions */
 237:Generated_Source\PSoC4/cyfitter_cfg.c **** 
 238:Generated_Source\PSoC4/cyfitter_cfg.c **** 
 239:Generated_Source\PSoC4/cyfitter_cfg.c **** /*******************************************************************************
 240:Generated_Source\PSoC4/cyfitter_cfg.c **** * Function Name: AnalogSetDefault
 241:Generated_Source\PSoC4/cyfitter_cfg.c **** ********************************************************************************
 242:Generated_Source\PSoC4/cyfitter_cfg.c **** *
 243:Generated_Source\PSoC4/cyfitter_cfg.c **** * Summary:
 244:Generated_Source\PSoC4/cyfitter_cfg.c **** *  Sets up the analog portions of the chip to default values based on chip
 245:Generated_Source\PSoC4/cyfitter_cfg.c **** *  configuration options from the project.
 246:Generated_Source\PSoC4/cyfitter_cfg.c **** *
 247:Generated_Source\PSoC4/cyfitter_cfg.c **** * Parameters:
 248:Generated_Source\PSoC4/cyfitter_cfg.c **** *  void
 249:Generated_Source\PSoC4/cyfitter_cfg.c **** *
 250:Generated_Source\PSoC4/cyfitter_cfg.c **** * Return:
 251:Generated_Source\PSoC4/cyfitter_cfg.c **** *  void
 252:Generated_Source\PSoC4/cyfitter_cfg.c **** *
 253:Generated_Source\PSoC4/cyfitter_cfg.c **** *******************************************************************************/
 254:Generated_Source\PSoC4/cyfitter_cfg.c **** static void AnalogSetDefault(void);
 255:Generated_Source\PSoC4/cyfitter_cfg.c **** static void AnalogSetDefault(void)
 256:Generated_Source\PSoC4/cyfitter_cfg.c **** {
 257:Generated_Source\PSoC4/cyfitter_cfg.c **** }
 258:Generated_Source\PSoC4/cyfitter_cfg.c **** 
 259:Generated_Source\PSoC4/cyfitter_cfg.c **** #define CY_AMUX_UNUSED CYREG_CM0_ROM_DWT
 260:Generated_Source\PSoC4/cyfitter_cfg.c **** 
 261:Generated_Source\PSoC4/cyfitter_cfg.c **** 
 262:Generated_Source\PSoC4/cyfitter_cfg.c **** /*******************************************************************************
 263:Generated_Source\PSoC4/cyfitter_cfg.c **** * Function Name: cyfitter_cfg
 264:Generated_Source\PSoC4/cyfitter_cfg.c **** ********************************************************************************
 265:Generated_Source\PSoC4/cyfitter_cfg.c **** * Summary:
 266:Generated_Source\PSoC4/cyfitter_cfg.c **** *  This function is called by the start-up code for the selected device. It
 267:Generated_Source\PSoC4/cyfitter_cfg.c **** *  performs all of the necessary device configuration based on the design
 268:Generated_Source\PSoC4/cyfitter_cfg.c **** *  settings.  This includes settings from the Design Wide Resources (DWR) such
 269:Generated_Source\PSoC4/cyfitter_cfg.c **** *  as Clocks and Pins as well as any component configuration that is necessary.
 270:Generated_Source\PSoC4/cyfitter_cfg.c **** *
 271:Generated_Source\PSoC4/cyfitter_cfg.c **** * Parameters:  
 272:Generated_Source\PSoC4/cyfitter_cfg.c **** *   void
 273:Generated_Source\PSoC4/cyfitter_cfg.c **** *
 274:Generated_Source\PSoC4/cyfitter_cfg.c **** * Return:
 275:Generated_Source\PSoC4/cyfitter_cfg.c **** *   void
 276:Generated_Source\PSoC4/cyfitter_cfg.c **** *
 277:Generated_Source\PSoC4/cyfitter_cfg.c **** *******************************************************************************/
 278:Generated_Source\PSoC4/cyfitter_cfg.c **** CY_CFG_SECTION
 279:Generated_Source\PSoC4/cyfitter_cfg.c **** void cyfitter_cfg(void)
 280:Generated_Source\PSoC4/cyfitter_cfg.c **** {
 225              		.loc 1 280 0
 226              		.cfi_startproc
 227 009c 10B5     		push	{r4, lr}
ARM GAS  C:\Users\Anders\AppData\Local\Temp\ccO2NzYt.s 			page 10


 228              		.cfi_def_cfa_offset 8
 229              		.cfi_offset 4, -8
 230              		.cfi_offset 14, -4
 281:Generated_Source\PSoC4/cyfitter_cfg.c **** 	/* Disable interrupts by default. Let user enable if/when they want. */
 282:Generated_Source\PSoC4/cyfitter_cfg.c **** 	CyGlobalIntDisable;
 231              		.loc 1 282 0
 232              	@ 282 "Generated_Source\PSoC4\cyfitter_cfg.c" 1
 233 009e 72B6     		CPSID   i
 234              	@ 0 "" 2
 235              	.LVL18:
 236              		.code	16
 237              	.LBB3:
 283:Generated_Source\PSoC4/cyfitter_cfg.c **** 
 284:Generated_Source\PSoC4/cyfitter_cfg.c **** 	{
 285:Generated_Source\PSoC4/cyfitter_cfg.c **** 		static const uint32 CYCODE cy_cfg_addr_table[] = {
 286:Generated_Source\PSoC4/cyfitter_cfg.c **** 			0x400F0002u, /* Base address: 0x400F0000 Count: 2 */
 287:Generated_Source\PSoC4/cyfitter_cfg.c **** 			0x400F3025u, /* Base address: 0x400F3000 Count: 37 */
 288:Generated_Source\PSoC4/cyfitter_cfg.c **** 			0x400F3113u, /* Base address: 0x400F3100 Count: 19 */
 289:Generated_Source\PSoC4/cyfitter_cfg.c **** 			0x400F323Bu, /* Base address: 0x400F3200 Count: 59 */
 290:Generated_Source\PSoC4/cyfitter_cfg.c **** 			0x400F3326u, /* Base address: 0x400F3300 Count: 38 */
 291:Generated_Source\PSoC4/cyfitter_cfg.c **** 			0x400F420Au, /* Base address: 0x400F4200 Count: 10 */
 292:Generated_Source\PSoC4/cyfitter_cfg.c **** 			0x400F4303u, /* Base address: 0x400F4300 Count: 3 */
 293:Generated_Source\PSoC4/cyfitter_cfg.c **** 			0x400F6002u, /* Base address: 0x400F6000 Count: 2 */
 294:Generated_Source\PSoC4/cyfitter_cfg.c **** 		};
 295:Generated_Source\PSoC4/cyfitter_cfg.c **** 
 296:Generated_Source\PSoC4/cyfitter_cfg.c **** 		static const cy_cfg_addrvalue_t CYCODE cy_cfg_data_table[] = {
 297:Generated_Source\PSoC4/cyfitter_cfg.c **** 			{0x00u, 0x64u},
 298:Generated_Source\PSoC4/cyfitter_cfg.c **** 			{0x82u, 0x0Fu},
 299:Generated_Source\PSoC4/cyfitter_cfg.c **** 			{0x00u, 0x0Fu},
 300:Generated_Source\PSoC4/cyfitter_cfg.c **** 			{0x04u, 0x01u},
 301:Generated_Source\PSoC4/cyfitter_cfg.c **** 			{0x06u, 0x32u},
 302:Generated_Source\PSoC4/cyfitter_cfg.c **** 			{0x0Cu, 0x20u},
 303:Generated_Source\PSoC4/cyfitter_cfg.c **** 			{0x0Eu, 0x10u},
 304:Generated_Source\PSoC4/cyfitter_cfg.c **** 			{0x11u, 0x01u},
 305:Generated_Source\PSoC4/cyfitter_cfg.c **** 			{0x13u, 0x02u},
 306:Generated_Source\PSoC4/cyfitter_cfg.c **** 			{0x19u, 0x03u},
 307:Generated_Source\PSoC4/cyfitter_cfg.c **** 			{0x2Au, 0x09u},
 308:Generated_Source\PSoC4/cyfitter_cfg.c **** 			{0x2Cu, 0x01u},
 309:Generated_Source\PSoC4/cyfitter_cfg.c **** 			{0x2Eu, 0x06u},
 310:Generated_Source\PSoC4/cyfitter_cfg.c **** 			{0x30u, 0x03u},
 311:Generated_Source\PSoC4/cyfitter_cfg.c **** 			{0x31u, 0x01u},
 312:Generated_Source\PSoC4/cyfitter_cfg.c **** 			{0x32u, 0x10u},
 313:Generated_Source\PSoC4/cyfitter_cfg.c **** 			{0x33u, 0x02u},
 314:Generated_Source\PSoC4/cyfitter_cfg.c **** 			{0x34u, 0x0Cu},
 315:Generated_Source\PSoC4/cyfitter_cfg.c **** 			{0x36u, 0x20u},
 316:Generated_Source\PSoC4/cyfitter_cfg.c **** 			{0x3Au, 0x22u},
 317:Generated_Source\PSoC4/cyfitter_cfg.c **** 			{0x40u, 0x51u},
 318:Generated_Source\PSoC4/cyfitter_cfg.c **** 			{0x41u, 0x06u},
 319:Generated_Source\PSoC4/cyfitter_cfg.c **** 			{0x49u, 0xFFu},
 320:Generated_Source\PSoC4/cyfitter_cfg.c **** 			{0x4Au, 0xFFu},
 321:Generated_Source\PSoC4/cyfitter_cfg.c **** 			{0x4Bu, 0xFFu},
 322:Generated_Source\PSoC4/cyfitter_cfg.c **** 			{0x4Du, 0x20u},
 323:Generated_Source\PSoC4/cyfitter_cfg.c **** 			{0x4Eu, 0xF0u},
 324:Generated_Source\PSoC4/cyfitter_cfg.c **** 			{0x51u, 0x10u},
 325:Generated_Source\PSoC4/cyfitter_cfg.c **** 			{0x52u, 0x02u},
 326:Generated_Source\PSoC4/cyfitter_cfg.c **** 			{0x56u, 0x10u},
 327:Generated_Source\PSoC4/cyfitter_cfg.c **** 			{0x58u, 0x04u},
ARM GAS  C:\Users\Anders\AppData\Local\Temp\ccO2NzYt.s 			page 11


 328:Generated_Source\PSoC4/cyfitter_cfg.c **** 			{0x59u, 0x04u},
 329:Generated_Source\PSoC4/cyfitter_cfg.c **** 			{0x5Au, 0x04u},
 330:Generated_Source\PSoC4/cyfitter_cfg.c **** 			{0x5Bu, 0x04u},
 331:Generated_Source\PSoC4/cyfitter_cfg.c **** 			{0x5Fu, 0x01u},
 332:Generated_Source\PSoC4/cyfitter_cfg.c **** 			{0x66u, 0x40u},
 333:Generated_Source\PSoC4/cyfitter_cfg.c **** 			{0x67u, 0x20u},
 334:Generated_Source\PSoC4/cyfitter_cfg.c **** 			{0x6Au, 0x40u},
 335:Generated_Source\PSoC4/cyfitter_cfg.c **** 			{0x6Bu, 0x40u},
 336:Generated_Source\PSoC4/cyfitter_cfg.c **** 			{0x01u, 0x02u},
 337:Generated_Source\PSoC4/cyfitter_cfg.c **** 			{0x03u, 0x22u},
 338:Generated_Source\PSoC4/cyfitter_cfg.c **** 			{0x10u, 0x0Au},
 339:Generated_Source\PSoC4/cyfitter_cfg.c **** 			{0x18u, 0x20u},
 340:Generated_Source\PSoC4/cyfitter_cfg.c **** 			{0x1Au, 0x01u},
 341:Generated_Source\PSoC4/cyfitter_cfg.c **** 			{0x1Bu, 0x22u},
 342:Generated_Source\PSoC4/cyfitter_cfg.c **** 			{0x21u, 0x01u},
 343:Generated_Source\PSoC4/cyfitter_cfg.c **** 			{0x22u, 0x08u},
 344:Generated_Source\PSoC4/cyfitter_cfg.c **** 			{0x33u, 0x22u},
 345:Generated_Source\PSoC4/cyfitter_cfg.c **** 			{0x41u, 0x40u},
 346:Generated_Source\PSoC4/cyfitter_cfg.c **** 			{0x48u, 0x05u},
 347:Generated_Source\PSoC4/cyfitter_cfg.c **** 			{0x68u, 0x0Fu},
 348:Generated_Source\PSoC4/cyfitter_cfg.c **** 			{0x89u, 0x01u},
 349:Generated_Source\PSoC4/cyfitter_cfg.c **** 			{0x8Cu, 0x10u},
 350:Generated_Source\PSoC4/cyfitter_cfg.c **** 			{0xC0u, 0x0Du},
 351:Generated_Source\PSoC4/cyfitter_cfg.c **** 			{0xC4u, 0x03u},
 352:Generated_Source\PSoC4/cyfitter_cfg.c **** 			{0xCCu, 0x05u},
 353:Generated_Source\PSoC4/cyfitter_cfg.c **** 			{0xD0u, 0x08u},
 354:Generated_Source\PSoC4/cyfitter_cfg.c **** 			{0xD2u, 0x0Cu},
 355:Generated_Source\PSoC4/cyfitter_cfg.c **** 			{0x01u, 0x01u},
 356:Generated_Source\PSoC4/cyfitter_cfg.c **** 			{0x08u, 0x04u},
 357:Generated_Source\PSoC4/cyfitter_cfg.c **** 			{0x0Eu, 0x0Cu},
 358:Generated_Source\PSoC4/cyfitter_cfg.c **** 			{0x1Eu, 0x01u},
 359:Generated_Source\PSoC4/cyfitter_cfg.c **** 			{0x27u, 0x03u},
 360:Generated_Source\PSoC4/cyfitter_cfg.c **** 			{0x2Au, 0x01u},
 361:Generated_Source\PSoC4/cyfitter_cfg.c **** 			{0x2Eu, 0x02u},
 362:Generated_Source\PSoC4/cyfitter_cfg.c **** 			{0x30u, 0x04u},
 363:Generated_Source\PSoC4/cyfitter_cfg.c **** 			{0x31u, 0x02u},
 364:Generated_Source\PSoC4/cyfitter_cfg.c **** 			{0x32u, 0x08u},
 365:Generated_Source\PSoC4/cyfitter_cfg.c **** 			{0x33u, 0x01u},
 366:Generated_Source\PSoC4/cyfitter_cfg.c **** 			{0x34u, 0x01u},
 367:Generated_Source\PSoC4/cyfitter_cfg.c **** 			{0x36u, 0x02u},
 368:Generated_Source\PSoC4/cyfitter_cfg.c **** 			{0x3Eu, 0x10u},
 369:Generated_Source\PSoC4/cyfitter_cfg.c **** 			{0x40u, 0x10u},
 370:Generated_Source\PSoC4/cyfitter_cfg.c **** 			{0x41u, 0x02u},
 371:Generated_Source\PSoC4/cyfitter_cfg.c **** 			{0x45u, 0xD0u},
 372:Generated_Source\PSoC4/cyfitter_cfg.c **** 			{0x46u, 0x50u},
 373:Generated_Source\PSoC4/cyfitter_cfg.c **** 			{0x47u, 0x12u},
 374:Generated_Source\PSoC4/cyfitter_cfg.c **** 			{0x48u, 0x3Au},
 375:Generated_Source\PSoC4/cyfitter_cfg.c **** 			{0x49u, 0xFFu},
 376:Generated_Source\PSoC4/cyfitter_cfg.c **** 			{0x4Au, 0xFFu},
 377:Generated_Source\PSoC4/cyfitter_cfg.c **** 			{0x4Bu, 0xFFu},
 378:Generated_Source\PSoC4/cyfitter_cfg.c **** 			{0x4Du, 0xA0u},
 379:Generated_Source\PSoC4/cyfitter_cfg.c **** 			{0x4Fu, 0x04u},
 380:Generated_Source\PSoC4/cyfitter_cfg.c **** 			{0x50u, 0x18u},
 381:Generated_Source\PSoC4/cyfitter_cfg.c **** 			{0x52u, 0x80u},
 382:Generated_Source\PSoC4/cyfitter_cfg.c **** 			{0x54u, 0x07u},
 383:Generated_Source\PSoC4/cyfitter_cfg.c **** 			{0x58u, 0x04u},
 384:Generated_Source\PSoC4/cyfitter_cfg.c **** 			{0x59u, 0x04u},
ARM GAS  C:\Users\Anders\AppData\Local\Temp\ccO2NzYt.s 			page 12


 385:Generated_Source\PSoC4/cyfitter_cfg.c **** 			{0x5Au, 0x04u},
 386:Generated_Source\PSoC4/cyfitter_cfg.c **** 			{0x5Bu, 0x04u},
 387:Generated_Source\PSoC4/cyfitter_cfg.c **** 			{0x5Fu, 0x01u},
 388:Generated_Source\PSoC4/cyfitter_cfg.c **** 			{0x60u, 0x40u},
 389:Generated_Source\PSoC4/cyfitter_cfg.c **** 			{0x62u, 0xC0u},
 390:Generated_Source\PSoC4/cyfitter_cfg.c **** 			{0x64u, 0x40u},
 391:Generated_Source\PSoC4/cyfitter_cfg.c **** 			{0x65u, 0x40u},
 392:Generated_Source\PSoC4/cyfitter_cfg.c **** 			{0x66u, 0xC0u},
 393:Generated_Source\PSoC4/cyfitter_cfg.c **** 			{0x68u, 0xC0u},
 394:Generated_Source\PSoC4/cyfitter_cfg.c **** 			{0x6Au, 0xC0u},
 395:Generated_Source\PSoC4/cyfitter_cfg.c **** 			{0x6Cu, 0xC0u},
 396:Generated_Source\PSoC4/cyfitter_cfg.c **** 			{0x6Eu, 0xC0u},
 397:Generated_Source\PSoC4/cyfitter_cfg.c **** 			{0xC0u, 0x05u},
 398:Generated_Source\PSoC4/cyfitter_cfg.c **** 			{0xC5u, 0x20u},
 399:Generated_Source\PSoC4/cyfitter_cfg.c **** 			{0xC8u, 0x02u},
 400:Generated_Source\PSoC4/cyfitter_cfg.c **** 			{0xC9u, 0xFFu},
 401:Generated_Source\PSoC4/cyfitter_cfg.c **** 			{0xCAu, 0xFFu},
 402:Generated_Source\PSoC4/cyfitter_cfg.c **** 			{0xCBu, 0xFFu},
 403:Generated_Source\PSoC4/cyfitter_cfg.c **** 			{0xCDu, 0x20u},
 404:Generated_Source\PSoC4/cyfitter_cfg.c **** 			{0xCEu, 0xF0u},
 405:Generated_Source\PSoC4/cyfitter_cfg.c **** 			{0xCFu, 0x10u},
 406:Generated_Source\PSoC4/cyfitter_cfg.c **** 			{0xD1u, 0x10u},
 407:Generated_Source\PSoC4/cyfitter_cfg.c **** 			{0xD2u, 0x01u},
 408:Generated_Source\PSoC4/cyfitter_cfg.c **** 			{0xD6u, 0x10u},
 409:Generated_Source\PSoC4/cyfitter_cfg.c **** 			{0xDAu, 0x04u},
 410:Generated_Source\PSoC4/cyfitter_cfg.c **** 			{0xDBu, 0x04u},
 411:Generated_Source\PSoC4/cyfitter_cfg.c **** 			{0xDFu, 0x01u},
 412:Generated_Source\PSoC4/cyfitter_cfg.c **** 			{0xE2u, 0x40u},
 413:Generated_Source\PSoC4/cyfitter_cfg.c **** 			{0xE3u, 0x40u},
 414:Generated_Source\PSoC4/cyfitter_cfg.c **** 			{0x04u, 0x10u},
 415:Generated_Source\PSoC4/cyfitter_cfg.c **** 			{0x06u, 0x02u},
 416:Generated_Source\PSoC4/cyfitter_cfg.c **** 			{0x0Du, 0x80u},
 417:Generated_Source\PSoC4/cyfitter_cfg.c **** 			{0x16u, 0x04u},
 418:Generated_Source\PSoC4/cyfitter_cfg.c **** 			{0x17u, 0x40u},
 419:Generated_Source\PSoC4/cyfitter_cfg.c **** 			{0x1Cu, 0x50u},
 420:Generated_Source\PSoC4/cyfitter_cfg.c **** 			{0x1Du, 0x80u},
 421:Generated_Source\PSoC4/cyfitter_cfg.c **** 			{0x1Eu, 0x08u},
 422:Generated_Source\PSoC4/cyfitter_cfg.c **** 			{0x25u, 0x01u},
 423:Generated_Source\PSoC4/cyfitter_cfg.c **** 			{0x27u, 0x20u},
 424:Generated_Source\PSoC4/cyfitter_cfg.c **** 			{0x2Fu, 0x20u},
 425:Generated_Source\PSoC4/cyfitter_cfg.c **** 			{0x3Du, 0x02u},
 426:Generated_Source\PSoC4/cyfitter_cfg.c **** 			{0x45u, 0x80u},
 427:Generated_Source\PSoC4/cyfitter_cfg.c **** 			{0x46u, 0x04u},
 428:Generated_Source\PSoC4/cyfitter_cfg.c **** 			{0x48u, 0x01u},
 429:Generated_Source\PSoC4/cyfitter_cfg.c **** 			{0x49u, 0x02u},
 430:Generated_Source\PSoC4/cyfitter_cfg.c **** 			{0x4Fu, 0x01u},
 431:Generated_Source\PSoC4/cyfitter_cfg.c **** 			{0x56u, 0x06u},
 432:Generated_Source\PSoC4/cyfitter_cfg.c **** 			{0x57u, 0x20u},
 433:Generated_Source\PSoC4/cyfitter_cfg.c **** 			{0x5Cu, 0x40u},
 434:Generated_Source\PSoC4/cyfitter_cfg.c **** 			{0x5Eu, 0x08u},
 435:Generated_Source\PSoC4/cyfitter_cfg.c **** 			{0x5Fu, 0x21u},
 436:Generated_Source\PSoC4/cyfitter_cfg.c **** 			{0x68u, 0x01u},
 437:Generated_Source\PSoC4/cyfitter_cfg.c **** 			{0x69u, 0x80u},
 438:Generated_Source\PSoC4/cyfitter_cfg.c **** 			{0x77u, 0x40u},
 439:Generated_Source\PSoC4/cyfitter_cfg.c **** 			{0x95u, 0x80u},
 440:Generated_Source\PSoC4/cyfitter_cfg.c **** 			{0x9Du, 0x02u},
 441:Generated_Source\PSoC4/cyfitter_cfg.c **** 			{0xAEu, 0x01u},
ARM GAS  C:\Users\Anders\AppData\Local\Temp\ccO2NzYt.s 			page 13


 442:Generated_Source\PSoC4/cyfitter_cfg.c **** 			{0xB6u, 0x08u},
 443:Generated_Source\PSoC4/cyfitter_cfg.c **** 			{0xC0u, 0xC0u},
 444:Generated_Source\PSoC4/cyfitter_cfg.c **** 			{0xC2u, 0x80u},
 445:Generated_Source\PSoC4/cyfitter_cfg.c **** 			{0xC4u, 0xC0u},
 446:Generated_Source\PSoC4/cyfitter_cfg.c **** 			{0xCAu, 0x40u},
 447:Generated_Source\PSoC4/cyfitter_cfg.c **** 			{0xCEu, 0x80u},
 448:Generated_Source\PSoC4/cyfitter_cfg.c **** 			{0xD0u, 0x30u},
 449:Generated_Source\PSoC4/cyfitter_cfg.c **** 			{0xD2u, 0x08u},
 450:Generated_Source\PSoC4/cyfitter_cfg.c **** 			{0xD6u, 0xF0u},
 451:Generated_Source\PSoC4/cyfitter_cfg.c **** 			{0xE8u, 0x08u},
 452:Generated_Source\PSoC4/cyfitter_cfg.c **** 			{0x50u, 0x10u},
 453:Generated_Source\PSoC4/cyfitter_cfg.c **** 			{0x56u, 0x40u},
 454:Generated_Source\PSoC4/cyfitter_cfg.c **** 			{0x5Bu, 0x10u},
 455:Generated_Source\PSoC4/cyfitter_cfg.c **** 			{0x5Fu, 0x40u},
 456:Generated_Source\PSoC4/cyfitter_cfg.c **** 			{0x8Bu, 0x40u},
 457:Generated_Source\PSoC4/cyfitter_cfg.c **** 			{0x8Fu, 0x10u},
 458:Generated_Source\PSoC4/cyfitter_cfg.c **** 			{0xD4u, 0x07u},
 459:Generated_Source\PSoC4/cyfitter_cfg.c **** 			{0xD6u, 0x04u},
 460:Generated_Source\PSoC4/cyfitter_cfg.c **** 			{0xE0u, 0x04u},
 461:Generated_Source\PSoC4/cyfitter_cfg.c **** 			{0xE4u, 0x02u},
 462:Generated_Source\PSoC4/cyfitter_cfg.c **** 			{0xAEu, 0x40u},
 463:Generated_Source\PSoC4/cyfitter_cfg.c **** 			{0xB4u, 0x10u},
 464:Generated_Source\PSoC4/cyfitter_cfg.c **** 			{0xECu, 0x02u},
 465:Generated_Source\PSoC4/cyfitter_cfg.c **** 			{0x01u, 0x01u},
 466:Generated_Source\PSoC4/cyfitter_cfg.c **** 			{0x10u, 0x01u},
 467:Generated_Source\PSoC4/cyfitter_cfg.c **** 		};
 468:Generated_Source\PSoC4/cyfitter_cfg.c **** 
 469:Generated_Source\PSoC4/cyfitter_cfg.c **** 
 470:Generated_Source\PSoC4/cyfitter_cfg.c **** 
 471:Generated_Source\PSoC4/cyfitter_cfg.c **** 		CYPACKED typedef struct {
 472:Generated_Source\PSoC4/cyfitter_cfg.c **** 			void CYFAR *address;
 473:Generated_Source\PSoC4/cyfitter_cfg.c **** 			uint16 size;
 474:Generated_Source\PSoC4/cyfitter_cfg.c **** 		} CYPACKED_ATTR cfg_memset_t;
 475:Generated_Source\PSoC4/cyfitter_cfg.c **** 
 476:Generated_Source\PSoC4/cyfitter_cfg.c **** 		static const cfg_memset_t CYCODE cfg_memset_list [] = {
 477:Generated_Source\PSoC4/cyfitter_cfg.c **** 			/* address, size */
 478:Generated_Source\PSoC4/cyfitter_cfg.c **** 			{(void CYFAR *)(CYDEV_UDB_P0_U0_BASE), 1024u},
 479:Generated_Source\PSoC4/cyfitter_cfg.c **** 			{(void CYFAR *)(CYDEV_UDB_DSI0_BASE), 1024u},
 480:Generated_Source\PSoC4/cyfitter_cfg.c **** 		};
 481:Generated_Source\PSoC4/cyfitter_cfg.c **** 
 482:Generated_Source\PSoC4/cyfitter_cfg.c **** 		uint8 CYDATA i;
 483:Generated_Source\PSoC4/cyfitter_cfg.c **** 
 484:Generated_Source\PSoC4/cyfitter_cfg.c **** 		/* Zero out critical memory blocks before beginning configuration */
 485:Generated_Source\PSoC4/cyfitter_cfg.c **** 		for (i = 0u; i < (sizeof(cfg_memset_list)/sizeof(cfg_memset_list[0])); i++)
 238              		.loc 1 485 0
 239 00a0 0024     		mov	r4, #0
 240 00a2 10E0     		b	.L11
 241              	.LVL19:
 242              	.L12:
 243              	.LBB4:
 486:Generated_Source\PSoC4/cyfitter_cfg.c **** 		{
 487:Generated_Source\PSoC4/cyfitter_cfg.c **** 			const cfg_memset_t CYCODE * CYDATA ms = &cfg_memset_list[i];
 488:Generated_Source\PSoC4/cyfitter_cfg.c **** 			CYMEMZERO(ms->address, (size_t)(uint32)(ms->size));
 244              		.loc 1 488 0 discriminator 3
 245 00a4 2348     		ldr	r0, .L13
 246 00a6 6300     		lsl	r3, r4, #1
 247 00a8 1A19     		add	r2, r3, r4
ARM GAS  C:\Users\Anders\AppData\Local\Temp\ccO2NzYt.s 			page 14


 248 00aa 5200     		lsl	r2, r2, #1
 249 00ac 8218     		add	r2, r0, r2
 250 00ae 9188     		ldrh	r1, [r2, #4]
 251 00b0 1B19     		add	r3, r3, r4
 252 00b2 5B00     		lsl	r3, r3, #1
 253 00b4 1A5A     		ldrh	r2, [r3, r0]
 254 00b6 C318     		add	r3, r0, r3
 255 00b8 5888     		ldrh	r0, [r3, #2]
 256 00ba 0004     		lsl	r0, r0, #16
 257 00bc 1043     		orr	r0, r2
 258 00be FFF7FEFF 		bl	CYMEMZERO
 259              	.LVL20:
 260              	.LBE4:
 485:Generated_Source\PSoC4/cyfitter_cfg.c **** 		{
 261              		.loc 1 485 0 discriminator 3
 262 00c2 0134     		add	r4, r4, #1
 263              	.LVL21:
 264 00c4 E4B2     		uxtb	r4, r4
 265              	.LVL22:
 266              	.L11:
 485:Generated_Source\PSoC4/cyfitter_cfg.c **** 		{
 267              		.loc 1 485 0 is_stmt 0 discriminator 1
 268 00c6 012C     		cmp	r4, #1
 269 00c8 ECD9     		bls	.L12
 489:Generated_Source\PSoC4/cyfitter_cfg.c **** 		}
 490:Generated_Source\PSoC4/cyfitter_cfg.c **** 
 491:Generated_Source\PSoC4/cyfitter_cfg.c **** 		cfg_write_bytes32(cy_cfg_addr_table, cy_cfg_data_table);
 270              		.loc 1 491 0 is_stmt 1
 271 00ca 1A49     		ldr	r1, .L13
 272 00cc 081C     		mov	r0, r1
 273 00ce 0C30     		add	r0, r0, #12
 274 00d0 2C31     		add	r1, r1, #44
 275 00d2 FFF7FEFF 		bl	cfg_write_bytes32
 276              	.LVL23:
 492:Generated_Source\PSoC4/cyfitter_cfg.c **** 
 493:Generated_Source\PSoC4/cyfitter_cfg.c **** 		/* HSIOM Starting address: CYDEV_HSIOM_BASE */
 494:Generated_Source\PSoC4/cyfitter_cfg.c **** 		CY_SET_XTND_REG32((void CYFAR *)(CYREG_HSIOM_PORT_SEL2), 0x00003333u);
 277              		.loc 1 494 0
 278 00d6 184A     		ldr	r2, .L13+4
 279 00d8 184B     		ldr	r3, .L13+8
 280 00da 1A60     		str	r2, [r3]
 495:Generated_Source\PSoC4/cyfitter_cfg.c **** 		CY_SET_XTND_REG32((void CYFAR *)(CYREG_HSIOM_PORT_SEL3), 0x0000EEEEu);
 281              		.loc 1 495 0
 282 00dc 184A     		ldr	r2, .L13+12
 283 00de 194B     		ldr	r3, .L13+16
 284 00e0 1A60     		str	r2, [r3]
 496:Generated_Source\PSoC4/cyfitter_cfg.c **** 
 497:Generated_Source\PSoC4/cyfitter_cfg.c **** 		/* UDB_PA_2 Starting address: CYDEV_UDB_PA2_BASE */
 498:Generated_Source\PSoC4/cyfitter_cfg.c **** 		CY_SET_XTND_REG32((void CYFAR *)(CYDEV_UDB_PA2_BASE), 0x00990000u);
 285              		.loc 1 498 0
 286 00e2 9923     		mov	r3, #153
 287 00e4 1B04     		lsl	r3, r3, #16
 288 00e6 184A     		ldr	r2, .L13+20
 289 00e8 1360     		str	r3, [r2]
 499:Generated_Source\PSoC4/cyfitter_cfg.c **** 		CY_SET_XTND_REG32((void CYFAR *)(CYREG_UDB_PA2_CFG8), 0x00930000u);
 290              		.loc 1 499 0
 291 00ea 9321     		mov	r1, #147
ARM GAS  C:\Users\Anders\AppData\Local\Temp\ccO2NzYt.s 			page 15


 292 00ec 0904     		lsl	r1, r1, #16
 293 00ee 174A     		ldr	r2, .L13+24
 294 00f0 1160     		str	r1, [r2]
 500:Generated_Source\PSoC4/cyfitter_cfg.c **** 
 501:Generated_Source\PSoC4/cyfitter_cfg.c **** 		/* UDB_PA_3 Starting address: CYDEV_UDB_PA3_BASE */
 502:Generated_Source\PSoC4/cyfitter_cfg.c **** 		CY_SET_XTND_REG32((void CYFAR *)(CYDEV_UDB_PA3_BASE), 0x00990000u);
 295              		.loc 1 502 0
 296 00f2 174A     		ldr	r2, .L13+28
 297 00f4 1360     		str	r3, [r2]
 503:Generated_Source\PSoC4/cyfitter_cfg.c **** 
 504:Generated_Source\PSoC4/cyfitter_cfg.c **** 		/* Enable digital routing */
 505:Generated_Source\PSoC4/cyfitter_cfg.c **** 		CY_SET_XTND_REG8((void *)CYREG_UDB_UDBIF_BANK_CTL, CY_GET_XTND_REG8((void *)CYREG_UDB_UDBIF_BANK_
 298              		.loc 1 505 0
 299 00f6 174B     		ldr	r3, .L13+32
 300 00f8 1978     		ldrb	r1, [r3]
 301 00fa 0222     		mov	r2, #2
 302 00fc 0A43     		orr	r2, r1
 303 00fe 1A70     		strb	r2, [r3]
 506:Generated_Source\PSoC4/cyfitter_cfg.c **** 
 507:Generated_Source\PSoC4/cyfitter_cfg.c **** 		/* Enable UDB array */
 508:Generated_Source\PSoC4/cyfitter_cfg.c **** 		CY_SET_XTND_REG8((void *)CYREG_UDB_UDBIF_WAIT_CFG, (uint8)((CY_GET_XTND_REG8((void *)CYREG_UDB_UD
 304              		.loc 1 508 0
 305 0100 1548     		ldr	r0, .L13+36
 306 0102 0278     		ldrb	r2, [r0]
 307 0104 3C21     		mov	r1, #60
 308 0106 8A43     		bic	r2, r1
 309 0108 2839     		sub	r1, r1, #40
 310 010a 0A43     		orr	r2, r1
 311 010c 0270     		strb	r2, [r0]
 509:Generated_Source\PSoC4/cyfitter_cfg.c **** 		CY_SET_XTND_REG8((void *)CYREG_UDB_UDBIF_BANK_CTL, (uint8)(CY_GET_XTND_REG8((void *)CYREG_UDB_UDB
 312              		.loc 1 509 0
 313 010e 1978     		ldrb	r1, [r3]
 314 0110 1622     		mov	r2, #22
 315 0112 0A43     		orr	r2, r1
 316 0114 1A70     		strb	r2, [r3]
 317              	.LBE3:
 510:Generated_Source\PSoC4/cyfitter_cfg.c **** 	}
 511:Generated_Source\PSoC4/cyfitter_cfg.c **** 
 512:Generated_Source\PSoC4/cyfitter_cfg.c **** 	/* Perform second pass device configuration. These items must be configured in specific order afte
 513:Generated_Source\PSoC4/cyfitter_cfg.c **** 	/* IOPINS0_2 Starting address: CYDEV_PRT2_BASE */
 514:Generated_Source\PSoC4/cyfitter_cfg.c **** 	CY_SET_XTND_REG32((void CYFAR *)(CYDEV_PRT2_BASE), 0x0000000Fu);
 318              		.loc 1 514 0
 319 0116 0F22     		mov	r2, #15
 320 0118 104B     		ldr	r3, .L13+40
 321 011a 1A60     		str	r2, [r3]
 515:Generated_Source\PSoC4/cyfitter_cfg.c **** 	CY_SET_XTND_REG32((void CYFAR *)(CYREG_PRT2_PC), 0x000006DBu);
 322              		.loc 1 515 0
 323 011c 104A     		ldr	r2, .L13+44
 324 011e 114B     		ldr	r3, .L13+48
 325 0120 1A60     		str	r2, [r3]
 516:Generated_Source\PSoC4/cyfitter_cfg.c **** 
 517:Generated_Source\PSoC4/cyfitter_cfg.c **** 	/* IOPINS0_3 Starting address: CYDEV_PRT3_BASE */
 518:Generated_Source\PSoC4/cyfitter_cfg.c **** 	CY_SET_XTND_REG32((void CYFAR *)(CYDEV_PRT3_BASE), 0x00000003u);
 326              		.loc 1 518 0
 327 0122 0322     		mov	r2, #3
 328 0124 104B     		ldr	r3, .L13+52
 329 0126 1A60     		str	r2, [r3]
ARM GAS  C:\Users\Anders\AppData\Local\Temp\ccO2NzYt.s 			page 16


 519:Generated_Source\PSoC4/cyfitter_cfg.c **** 	CY_SET_XTND_REG32((void CYFAR *)(CYREG_PRT3_PC), 0x00000DA4u);
 330              		.loc 1 519 0
 331 0128 104A     		ldr	r2, .L13+56
 332 012a 114B     		ldr	r3, .L13+60
 333 012c 1A60     		str	r2, [r3]
 520:Generated_Source\PSoC4/cyfitter_cfg.c **** 
 521:Generated_Source\PSoC4/cyfitter_cfg.c **** 
 522:Generated_Source\PSoC4/cyfitter_cfg.c **** 	/* Setup clocks based on selections from Clock DWR */
 523:Generated_Source\PSoC4/cyfitter_cfg.c **** 	ClockSetup();
 334              		.loc 1 523 0
 335 012e FFF767FF 		bl	ClockSetup
 336              	.LVL24:
 524:Generated_Source\PSoC4/cyfitter_cfg.c **** 
 525:Generated_Source\PSoC4/cyfitter_cfg.c **** 	/* Perform basic analog initialization to defaults */
 526:Generated_Source\PSoC4/cyfitter_cfg.c **** 	AnalogSetDefault();
 527:Generated_Source\PSoC4/cyfitter_cfg.c **** 
 528:Generated_Source\PSoC4/cyfitter_cfg.c **** }
 337              		.loc 1 528 0
 338              		@ sp needed
 339              	.LVL25:
 340 0132 10BD     		pop	{r4, pc}
 341              	.L14:
 342              		.align	2
 343              	.L13:
 344 0134 00000000 		.word	.LANCHOR0
 345 0138 33330000 		.word	13107
 346 013c 08000140 		.word	1073807368
 347 0140 EEEE0000 		.word	61166
 348 0144 0C000140 		.word	1073807372
 349 0148 20500F40 		.word	1074745376
 350 014c 28500F40 		.word	1074745384
 351 0150 30500F40 		.word	1074745392
 352 0154 00700F40 		.word	1074753536
 353 0158 01700F40 		.word	1074753537
 354 015c 00020440 		.word	1074004480
 355 0160 DB060000 		.word	1755
 356 0164 08020440 		.word	1074004488
 357 0168 00030440 		.word	1074004736
 358 016c A40D0000 		.word	3492
 359 0170 08030440 		.word	1074004744
 360              		.cfi_endproc
 361              	.LFE6:
 362              		.size	cyfitter_cfg, .-cyfitter_cfg
 363              		.section	.rodata
 364              		.align	2
 365              		.set	.LANCHOR0,. + 0
 366              		.type	cfg_memset_list.4748, %object
 367              		.size	cfg_memset_list.4748, 12
 368              	cfg_memset_list.4748:
 369 0000 00300F40 		.word	1074737152
 370 0004 0004     		.short	1024
 371 0006 00400F40 		.4byte	1074741248
 372 000a 0004     		.short	1024
 373              		.type	cy_cfg_addr_table.4742, %object
 374              		.size	cy_cfg_addr_table.4742, 32
 375              	cy_cfg_addr_table.4742:
 376 000c 02000F40 		.word	1074724866
ARM GAS  C:\Users\Anders\AppData\Local\Temp\ccO2NzYt.s 			page 17


 377 0010 25300F40 		.word	1074737189
 378 0014 13310F40 		.word	1074737427
 379 0018 3B320F40 		.word	1074737723
 380 001c 26330F40 		.word	1074737958
 381 0020 0A420F40 		.word	1074741770
 382 0024 03430F40 		.word	1074742019
 383 0028 02600F40 		.word	1074749442
 384              		.type	cy_cfg_data_table.4743, %object
 385              		.size	cy_cfg_data_table.4743, 340
 386              	cy_cfg_data_table.4743:
 387 002c 00       		.byte	0
 388 002d 64       		.byte	100
 389 002e 82       		.byte	-126
 390 002f 0F       		.byte	15
 391 0030 00       		.byte	0
 392 0031 0F       		.byte	15
 393 0032 04       		.byte	4
 394 0033 01       		.byte	1
 395 0034 06       		.byte	6
 396 0035 32       		.byte	50
 397 0036 0C       		.byte	12
 398 0037 20       		.byte	32
 399 0038 0E       		.byte	14
 400 0039 10       		.byte	16
 401 003a 11       		.byte	17
 402 003b 01       		.byte	1
 403 003c 13       		.byte	19
 404 003d 02       		.byte	2
 405 003e 19       		.byte	25
 406 003f 03       		.byte	3
 407 0040 2A       		.byte	42
 408 0041 09       		.byte	9
 409 0042 2C       		.byte	44
 410 0043 01       		.byte	1
 411 0044 2E       		.byte	46
 412 0045 06       		.byte	6
 413 0046 30       		.byte	48
 414 0047 03       		.byte	3
 415 0048 31       		.byte	49
 416 0049 01       		.byte	1
 417 004a 32       		.byte	50
 418 004b 10       		.byte	16
 419 004c 33       		.byte	51
 420 004d 02       		.byte	2
 421 004e 34       		.byte	52
 422 004f 0C       		.byte	12
 423 0050 36       		.byte	54
 424 0051 20       		.byte	32
 425 0052 3A       		.byte	58
 426 0053 22       		.byte	34
 427 0054 40       		.byte	64
 428 0055 51       		.byte	81
 429 0056 41       		.byte	65
 430 0057 06       		.byte	6
 431 0058 49       		.byte	73
 432 0059 FF       		.byte	-1
 433 005a 4A       		.byte	74
ARM GAS  C:\Users\Anders\AppData\Local\Temp\ccO2NzYt.s 			page 18


 434 005b FF       		.byte	-1
 435 005c 4B       		.byte	75
 436 005d FF       		.byte	-1
 437 005e 4D       		.byte	77
 438 005f 20       		.byte	32
 439 0060 4E       		.byte	78
 440 0061 F0       		.byte	-16
 441 0062 51       		.byte	81
 442 0063 10       		.byte	16
 443 0064 52       		.byte	82
 444 0065 02       		.byte	2
 445 0066 56       		.byte	86
 446 0067 10       		.byte	16
 447 0068 58       		.byte	88
 448 0069 04       		.byte	4
 449 006a 59       		.byte	89
 450 006b 04       		.byte	4
 451 006c 5A       		.byte	90
 452 006d 04       		.byte	4
 453 006e 5B       		.byte	91
 454 006f 04       		.byte	4
 455 0070 5F       		.byte	95
 456 0071 01       		.byte	1
 457 0072 66       		.byte	102
 458 0073 40       		.byte	64
 459 0074 67       		.byte	103
 460 0075 20       		.byte	32
 461 0076 6A       		.byte	106
 462 0077 40       		.byte	64
 463 0078 6B       		.byte	107
 464 0079 40       		.byte	64
 465 007a 01       		.byte	1
 466 007b 02       		.byte	2
 467 007c 03       		.byte	3
 468 007d 22       		.byte	34
 469 007e 10       		.byte	16
 470 007f 0A       		.byte	10
 471 0080 18       		.byte	24
 472 0081 20       		.byte	32
 473 0082 1A       		.byte	26
 474 0083 01       		.byte	1
 475 0084 1B       		.byte	27
 476 0085 22       		.byte	34
 477 0086 21       		.byte	33
 478 0087 01       		.byte	1
 479 0088 22       		.byte	34
 480 0089 08       		.byte	8
 481 008a 33       		.byte	51
 482 008b 22       		.byte	34
 483 008c 41       		.byte	65
 484 008d 40       		.byte	64
 485 008e 48       		.byte	72
 486 008f 05       		.byte	5
 487 0090 68       		.byte	104
 488 0091 0F       		.byte	15
 489 0092 89       		.byte	-119
 490 0093 01       		.byte	1
ARM GAS  C:\Users\Anders\AppData\Local\Temp\ccO2NzYt.s 			page 19


 491 0094 8C       		.byte	-116
 492 0095 10       		.byte	16
 493 0096 C0       		.byte	-64
 494 0097 0D       		.byte	13
 495 0098 C4       		.byte	-60
 496 0099 03       		.byte	3
 497 009a CC       		.byte	-52
 498 009b 05       		.byte	5
 499 009c D0       		.byte	-48
 500 009d 08       		.byte	8
 501 009e D2       		.byte	-46
 502 009f 0C       		.byte	12
 503 00a0 01       		.byte	1
 504 00a1 01       		.byte	1
 505 00a2 08       		.byte	8
 506 00a3 04       		.byte	4
 507 00a4 0E       		.byte	14
 508 00a5 0C       		.byte	12
 509 00a6 1E       		.byte	30
 510 00a7 01       		.byte	1
 511 00a8 27       		.byte	39
 512 00a9 03       		.byte	3
 513 00aa 2A       		.byte	42
 514 00ab 01       		.byte	1
 515 00ac 2E       		.byte	46
 516 00ad 02       		.byte	2
 517 00ae 30       		.byte	48
 518 00af 04       		.byte	4
 519 00b0 31       		.byte	49
 520 00b1 02       		.byte	2
 521 00b2 32       		.byte	50
 522 00b3 08       		.byte	8
 523 00b4 33       		.byte	51
 524 00b5 01       		.byte	1
 525 00b6 34       		.byte	52
 526 00b7 01       		.byte	1
 527 00b8 36       		.byte	54
 528 00b9 02       		.byte	2
 529 00ba 3E       		.byte	62
 530 00bb 10       		.byte	16
 531 00bc 40       		.byte	64
 532 00bd 10       		.byte	16
 533 00be 41       		.byte	65
 534 00bf 02       		.byte	2
 535 00c0 45       		.byte	69
 536 00c1 D0       		.byte	-48
 537 00c2 46       		.byte	70
 538 00c3 50       		.byte	80
 539 00c4 47       		.byte	71
 540 00c5 12       		.byte	18
 541 00c6 48       		.byte	72
 542 00c7 3A       		.byte	58
 543 00c8 49       		.byte	73
 544 00c9 FF       		.byte	-1
 545 00ca 4A       		.byte	74
 546 00cb FF       		.byte	-1
 547 00cc 4B       		.byte	75
ARM GAS  C:\Users\Anders\AppData\Local\Temp\ccO2NzYt.s 			page 20


 548 00cd FF       		.byte	-1
 549 00ce 4D       		.byte	77
 550 00cf A0       		.byte	-96
 551 00d0 4F       		.byte	79
 552 00d1 04       		.byte	4
 553 00d2 50       		.byte	80
 554 00d3 18       		.byte	24
 555 00d4 52       		.byte	82
 556 00d5 80       		.byte	-128
 557 00d6 54       		.byte	84
 558 00d7 07       		.byte	7
 559 00d8 58       		.byte	88
 560 00d9 04       		.byte	4
 561 00da 59       		.byte	89
 562 00db 04       		.byte	4
 563 00dc 5A       		.byte	90
 564 00dd 04       		.byte	4
 565 00de 5B       		.byte	91
 566 00df 04       		.byte	4
 567 00e0 5F       		.byte	95
 568 00e1 01       		.byte	1
 569 00e2 60       		.byte	96
 570 00e3 40       		.byte	64
 571 00e4 62       		.byte	98
 572 00e5 C0       		.byte	-64
 573 00e6 64       		.byte	100
 574 00e7 40       		.byte	64
 575 00e8 65       		.byte	101
 576 00e9 40       		.byte	64
 577 00ea 66       		.byte	102
 578 00eb C0       		.byte	-64
 579 00ec 68       		.byte	104
 580 00ed C0       		.byte	-64
 581 00ee 6A       		.byte	106
 582 00ef C0       		.byte	-64
 583 00f0 6C       		.byte	108
 584 00f1 C0       		.byte	-64
 585 00f2 6E       		.byte	110
 586 00f3 C0       		.byte	-64
 587 00f4 C0       		.byte	-64
 588 00f5 05       		.byte	5
 589 00f6 C5       		.byte	-59
 590 00f7 20       		.byte	32
 591 00f8 C8       		.byte	-56
 592 00f9 02       		.byte	2
 593 00fa C9       		.byte	-55
 594 00fb FF       		.byte	-1
 595 00fc CA       		.byte	-54
 596 00fd FF       		.byte	-1
 597 00fe CB       		.byte	-53
 598 00ff FF       		.byte	-1
 599 0100 CD       		.byte	-51
 600 0101 20       		.byte	32
 601 0102 CE       		.byte	-50
 602 0103 F0       		.byte	-16
 603 0104 CF       		.byte	-49
 604 0105 10       		.byte	16
ARM GAS  C:\Users\Anders\AppData\Local\Temp\ccO2NzYt.s 			page 21


 605 0106 D1       		.byte	-47
 606 0107 10       		.byte	16
 607 0108 D2       		.byte	-46
 608 0109 01       		.byte	1
 609 010a D6       		.byte	-42
 610 010b 10       		.byte	16
 611 010c DA       		.byte	-38
 612 010d 04       		.byte	4
 613 010e DB       		.byte	-37
 614 010f 04       		.byte	4
 615 0110 DF       		.byte	-33
 616 0111 01       		.byte	1
 617 0112 E2       		.byte	-30
 618 0113 40       		.byte	64
 619 0114 E3       		.byte	-29
 620 0115 40       		.byte	64
 621 0116 04       		.byte	4
 622 0117 10       		.byte	16
 623 0118 06       		.byte	6
 624 0119 02       		.byte	2
 625 011a 0D       		.byte	13
 626 011b 80       		.byte	-128
 627 011c 16       		.byte	22
 628 011d 04       		.byte	4
 629 011e 17       		.byte	23
 630 011f 40       		.byte	64
 631 0120 1C       		.byte	28
 632 0121 50       		.byte	80
 633 0122 1D       		.byte	29
 634 0123 80       		.byte	-128
 635 0124 1E       		.byte	30
 636 0125 08       		.byte	8
 637 0126 25       		.byte	37
 638 0127 01       		.byte	1
 639 0128 27       		.byte	39
 640 0129 20       		.byte	32
 641 012a 2F       		.byte	47
 642 012b 20       		.byte	32
 643 012c 3D       		.byte	61
 644 012d 02       		.byte	2
 645 012e 45       		.byte	69
 646 012f 80       		.byte	-128
 647 0130 46       		.byte	70
 648 0131 04       		.byte	4
 649 0132 48       		.byte	72
 650 0133 01       		.byte	1
 651 0134 49       		.byte	73
 652 0135 02       		.byte	2
 653 0136 4F       		.byte	79
 654 0137 01       		.byte	1
 655 0138 56       		.byte	86
 656 0139 06       		.byte	6
 657 013a 57       		.byte	87
 658 013b 20       		.byte	32
 659 013c 5C       		.byte	92
 660 013d 40       		.byte	64
 661 013e 5E       		.byte	94
ARM GAS  C:\Users\Anders\AppData\Local\Temp\ccO2NzYt.s 			page 22


 662 013f 08       		.byte	8
 663 0140 5F       		.byte	95
 664 0141 21       		.byte	33
 665 0142 68       		.byte	104
 666 0143 01       		.byte	1
 667 0144 69       		.byte	105
 668 0145 80       		.byte	-128
 669 0146 77       		.byte	119
 670 0147 40       		.byte	64
 671 0148 95       		.byte	-107
 672 0149 80       		.byte	-128
 673 014a 9D       		.byte	-99
 674 014b 02       		.byte	2
 675 014c AE       		.byte	-82
 676 014d 01       		.byte	1
 677 014e B6       		.byte	-74
 678 014f 08       		.byte	8
 679 0150 C0       		.byte	-64
 680 0151 C0       		.byte	-64
 681 0152 C2       		.byte	-62
 682 0153 80       		.byte	-128
 683 0154 C4       		.byte	-60
 684 0155 C0       		.byte	-64
 685 0156 CA       		.byte	-54
 686 0157 40       		.byte	64
 687 0158 CE       		.byte	-50
 688 0159 80       		.byte	-128
 689 015a D0       		.byte	-48
 690 015b 30       		.byte	48
 691 015c D2       		.byte	-46
 692 015d 08       		.byte	8
 693 015e D6       		.byte	-42
 694 015f F0       		.byte	-16
 695 0160 E8       		.byte	-24
 696 0161 08       		.byte	8
 697 0162 50       		.byte	80
 698 0163 10       		.byte	16
 699 0164 56       		.byte	86
 700 0165 40       		.byte	64
 701 0166 5B       		.byte	91
 702 0167 10       		.byte	16
 703 0168 5F       		.byte	95
 704 0169 40       		.byte	64
 705 016a 8B       		.byte	-117
 706 016b 40       		.byte	64
 707 016c 8F       		.byte	-113
 708 016d 10       		.byte	16
 709 016e D4       		.byte	-44
 710 016f 07       		.byte	7
 711 0170 D6       		.byte	-42
 712 0171 04       		.byte	4
 713 0172 E0       		.byte	-32
 714 0173 04       		.byte	4
 715 0174 E4       		.byte	-28
 716 0175 02       		.byte	2
 717 0176 AE       		.byte	-82
 718 0177 40       		.byte	64
ARM GAS  C:\Users\Anders\AppData\Local\Temp\ccO2NzYt.s 			page 23


 719 0178 B4       		.byte	-76
 720 0179 10       		.byte	16
 721 017a EC       		.byte	-20
 722 017b 02       		.byte	2
 723 017c 01       		.byte	1
 724 017d 01       		.byte	1
 725 017e 10       		.byte	16
 726 017f 01       		.byte	1
 727              		.text
 728              	.Letext0:
 729              		.file 2 "c:\\program files (x86)\\cypress\\psoc creator\\4.0\\psoc creator\\import\\gnu\\arm\\4.9.
 730              		.file 3 "Generated_Source\\PSoC4\\cytypes.h"
 731              		.file 4 "Generated_Source\\PSoC4\\CyLib.h"